(lp0
((lp1
F303.1497303291261
aF303.1484741178055
aF303.14971608479874
aF303.1495786129573
aF303.14897018756847
aF303.15046947671414
aF303.149831421773
aF303.1493359305325
aF303.15111952574705
aF303.15067372980576
aF303.15077153900893
aF303.14963326538054
aF303.15167513018764
aF303.15287407734667
aF303.15002717234063
aF303.1501000365322
aF303.15006644168153
aF303.15211342089293
aF303.150042100616
aF303.15072261288674
aF303.15062880766243
aF303.1496631478119
aF303.15222598176723
aF303.1491693657674
aF303.15004890365043
aF303.15231242244215
aF303.1507010409459
aF303.1484307431417
aF303.14807599201964
aF303.14976834782175
aF303.1502994359318
aF303.1500355332383
aF303.14983074242065
aF303.1488797038703
aF303.14866831067445
aF303.1479080044723
aF303.14846358796166
aF303.1487341891048
aF303.1500063737448
aF303.1493180901773
aF303.1472538902327
aF303.1490245912699
aF303.1469887763974
aF303.14895203439505
aF303.14640967983627
aF303.14783742002925
aF303.14870666577053
aF303.14867333584823
aF303.1466875378464
aF303.14729552896995
aF303.14761416000056
aF303.14675216999274
aF303.1486091402955
aF303.14821601990934
aF303.1459418427495
aF303.1471950164447
aF303.14606892007293
aF303.1483500208876
aF303.1470755290006
aF303.14597901134545
aF303.1458378089088
aF303.14600245559444
aF303.14608599827017
aF303.1460092674587
aF303.1452535940252
aF303.14576062804275
aF303.14617830490175
aF303.14551018529255
aF303.1448542912589
aF303.1459908134746
aF303.1461001434229
aF303.14489266400193
aF303.14415240811155
aF303.1447011974143
aF303.1448510985642
aF303.1436262542397
aF303.14437457647614
aF303.1430729407977
aF303.1432463769115
aF303.14178996573975
aF303.1433400789493
aF303.14207924846335
aF303.1450749419585
aF303.14435316612787
aF303.14237173753736
aF303.1438673747556
aF303.14406323533905
aF303.14396145595566
aF303.14046804262495
aF303.14072181738953
aF303.1420209179795
aF303.1427096978292
aF303.1432960548476
aF303.14240029673687
aF303.14053074498474
aF303.1416677048821
aF303.1410035362739
aF303.1417859216494
aF303.1406272547975
aF303.14199936792073
aF303.14183623868377
aF303.1418441506992
aF303.14196793641867
aF303.14000515508195
aF303.13971794157
aF303.1409094065015
aF303.13904548207944
aF303.1390041375529
aF303.13920689121545
aF303.139369437659
aF303.13991024250373
aF303.13992909672737
aF303.13858760385193
aF303.13913708637057
aF303.1406197418577
aF303.13785943028705
aF303.13819989463695
aF303.1407700649183
aF303.13782778997177
aF303.1382416094683
aF303.13912362565753
aF303.13814203096575
aF303.13974085617497
aF303.13928676005037
aF303.13754069637724
aF303.13749040764804
aF303.1370781129861
aF303.1366884798536
aF303.1384740700313
aF303.13678585929625
aF303.13953634678313
aF303.1383631870437
aF303.13742384007486
aF303.135529618471
aF303.13624192294236
aF303.1362728616775
aF303.13754782549444
aF303.1382157227665
aF303.13746237798097
aF303.13766533015263
aF303.1367435213216
aF303.1369080705045
aF303.13530569225793
aF303.13528722070333
aF303.13670989476947
aF303.13644565624435
aF303.13548350113854
aF303.1351657367026
aF303.13680753176294
aF303.1348210076321
aF303.13657453605055
aF303.1361595728071
aF303.1353488438471
aF303.1351180779933
aF303.13315216415623
aF303.1326980073051
aF303.1333112942692
aF303.1351488627023
aF303.1340471952204
aF303.13464249781026
aF303.133877115728
aF303.1353728958056
aF303.13514986670094
aF303.1327052721637
aF303.1338644077504
aF303.1329358241424
aF303.13424608070346
aF303.13416604620096
aF303.13338932876593
aF303.1342826056226
aF303.13244654849746
aF303.1336210618442
aF303.13342477417797
aF303.13504448158267
aF303.13303294178246
aF303.13457126944365
aF303.1339556281745
aF303.13241012149075
aF303.13297689144014
aF303.13356734639217
aF303.1319775088298
aF303.1319401850646
aF303.1341993505122
aF303.132812343393
aF303.13033187542374
aF303.1308700734803
aF303.13301893204965
aF303.13279303801386
aF303.130417193214
aF303.1322863327217
aF303.13328761199153
aF303.13175429837264
aF303.13154308227723
aF303.13122520083135
aF303.13244727408727
aF303.13055055312736
aF303.133944217201
aF303.12922411283415
aF303.13104187141334
aF303.131680013767
aF303.13080204181625
aF303.1323014587102
aF303.13019308681805
aF303.13175924911
aF303.13062138972225
aF303.1319483127144
aF303.1308513782912
aF303.1321307432166
aF303.1300480477344
aF303.1296215378947
aF303.13074631877976
aF303.1311945839171
aF303.1299577299005
aF303.1289130615459
aF303.1302279430886
aF303.1306947761889
aF303.1291876411628
aF303.1278320615751
aF303.12731637032357
aF303.1304291747719
aF303.12885383642623
aF303.1293326521502
aF303.12935693709807
aF303.1293751311568
aF303.1282585711611
aF303.130133918267
aF303.1278980914816
aF303.12922801524905
aF303.130078152291
aF303.12798076029463
aF303.1284242037274
aF303.12816942999353
aF303.128665850207
aF303.1294458360615
aF303.12838917207006
aF303.1270253871739
aF303.1281336348458
aF303.12769137783016
aF303.12673861747527
aF303.1287593560455
aF303.1300406216897
aF303.12907381651775
aF303.12670135739245
aF303.1278740568873
aF303.1279777212096
aF303.12919540910696
aF303.12622655292364
aF303.1290462415111
aF303.1276149319818
aF303.12930609179483
aF303.1281708986101
aF303.12943036657856
aF303.12916044491817
aF303.1277161824279
aF303.1263603413807
aF303.1275495909693
aF303.1265924531655
aF303.12793059498364
aF303.1270831232942
aF303.126382501138
aF303.12539284841364
aF303.12576760678223
aF303.12578305000915
aF303.1259353950316
aF303.12565305067085
aF303.1260533078813
aF303.1269213224882
aF303.12718312714946
aF303.1282767704497
aF303.12704768536753
aF303.12568760591864
aF303.1273098702014
aF303.1245989484696
aF303.1263544358578
aF303.12546443958814
aF303.1268085487657
aF303.1261980488838
aF303.12557842590104
aF303.1235088852497
aF303.12558665230887
aF303.12494861661673
aF303.12635282283117
aF303.1258651153232
aF303.1220286379699
aF303.1245962657102
aF303.12593298491424
aF303.12528773481796
aF303.12433289181865
aF303.12560694881125
aF303.12430590977766
aF303.124534095258
aF303.1257902023536
aF303.12386119313953
aF303.1238794595916
aF303.1243515493788
aF303.12369117209937
aF303.1249784373027
aF303.1249102855166
aF303.1246880929683
aF303.12540441314997
aF303.1248042096021
aF303.1251434689147
aF303.1243467714734
aF303.12507690752346
aF303.1260548985701
aF303.12369943435795
aF303.12499076195945
aF303.12547870692225
aF303.1232506510271
aF303.12437308415514
aF303.12305216045365
aF303.12432398576857
aF303.1231133801589
aF303.12360955654424
aF303.1231595705593
aF303.12240298397853
aF303.1237214712995
aF303.12205013023396
aF303.12350220181065
aF303.12266452472073
aF303.1235528015171
aF303.1209877723316
aF303.1231583793112
aF303.12258290326747
aF303.1230961317381
aF303.124385459905
aF303.1232697965497
aF303.12296960101384
aF303.12378666757263
aF303.1225237665284
aF303.1229532410085
aF303.12410427324335
aF303.12406368108924
aF303.1230444204595
aF303.1245620929831
aF303.12422781903837
aF303.12266231908194
aF303.12072516617394
aF303.12400181598946
aF303.1231969130017
aF303.12152554472806
aF303.12346475365655
aF303.1220842856489
aF303.1231159356451
aF303.1243126990715
aF303.12274860855604
aF303.1221317796566
aF303.1238140254298
aF303.12193456272365
aF303.12208182452923
aF303.12120938493246
aF303.12217715603975
aF303.1219476478794
aF303.1228659712859
aF303.1226662479825
aF303.1218511397127
aF303.12165782482305
aF303.1223327701947
aF303.1222194678703
aF303.1221086510661
aF303.1200568763621
aF303.12270676581244
aF303.1228934226496
aF303.1231835516299
aF303.1215910443807
aF303.1211370805932
aF303.1203139057809
aF303.1204620935917
aF303.1214439306007
aF303.12084459983186
aF303.12206760017153
aF303.119754022533
aF303.12132692921756
aF303.12162916227805
aF303.1208506138542
aF303.1219158765154
aF303.1200049573717
aF303.1206841966705
aF303.12187860924973
aF303.119809381044
aF303.11963624315086
aF303.1203594579808
aF303.12014249289564
aF303.12159516515624
aF303.12188910974953
aF303.1212488471086
aF303.11902999468646
aF303.121044689952
aF303.11916740447316
aF303.1198440084851
aF303.12122670826886
aF303.1216100212612
aF303.1196933676531
aF303.1198898487536
aF303.118963919493
aF303.11942547093076
aF303.1197839178008
aF303.1217425112367
aF303.1179493899266
aF303.11980640196913
aF303.1224122672871
aF303.12158851461294
aF303.1197350543965
aF303.120265103298
aF303.1193488100824
aF303.1191511259619
aF303.1199055536106
aF303.118597295692
aF303.1201370842565
aF303.1190670820913
aF303.1191719983
aF303.1199313802337
aF303.1207449744578
aF303.120701538098
aF303.12014409937217
aF303.1201443220979
aF303.1185029626509
aF303.1204658560005
aF303.11779116101945
aF303.11924307063083
aF303.1200102390275
aF303.1197762894267
aF303.11890314990836
aF303.11914123808117
aF303.11915392182436
aF303.1188113273952
aF303.11932849698655
aF303.11913035033865
aF303.1206730807372
aF303.11630257780166
aF303.1174191861145
aF303.1201939006119
aF303.1188578071044
aF303.1207638946207
aF303.118910719733
aF303.11908556479835
aF303.1179097952185
aF303.1198715675112
aF303.11835496886846
aF303.1200210220755
aF303.1183919042233
aF303.1169018408875
aF303.11930435367117
aF303.1196510657373
aF303.1217447592455
aF303.1185912745536
aF303.1182973236523
aF303.1183954955735
aF303.1165768647294
aF303.1187655221939
aF303.1167167813157
aF303.11725918568277
aF303.1182652901723
aF303.11913478007983
aF303.11831629948944
aF303.1181053189356
aF303.11767262128234
aF303.1190233176528
aF303.11769277391426
aF303.1177155618288
aF303.1182732916169
aF303.1175611348625
aF303.1181341568431
aF303.1172010831203
aF303.1173401216324
aF303.11798252689033
aF303.116180784035
aF303.1176224194604
aF303.1183868272098
aF303.1199317819702
aF303.1189199024641
aF303.1182967056588
aF303.11876613942763
aF303.1182376502665
aF303.1186098630652
aF303.11749345707443
aF303.1170565868037
aF303.1173103968938
aF303.1159422147104
aF303.1160676737334
aF303.11705515169103
aF303.11656476484416
aF303.11680860725244
aF303.1154417011863
aF303.1173924646507
aF303.1141093953219
aF303.11773176212375
aF303.1162504895034
aF303.11682220448006
aF303.11588539575024
aF303.11620701746267
aF303.1172732080359
aF303.11752753687256
aF303.11778577618867
aF303.1181945058844
aF303.1166343170988
aF303.11800937931406
aF303.1190132422283
aF303.11837001448936
aF303.11734268381656
aF303.1159318620868
aF303.1170816337098
aF303.11759221321296
aF303.11743581843535
aF303.1175352374053
aF303.1154983974361
aF303.1165790650994
aF303.1159328210355
aF303.1163489882997
aF303.11778894631146
aF303.1159661916885
aF303.1156875123617
aF303.11455316306785
aF303.1172434699476
aF303.11532622073173
aF303.11860128753904
aF303.11672341302005
aF303.1174973529236
aF303.1170166461657
aF303.1153773029414
aF303.1181257967986
aF303.1151528546631
aF303.11710526302943
aF303.11487979198427
aF303.1170552484198
aF303.1154162337222
aF303.1171960245814
aF303.11788649396783
aF303.1154864928074
aF303.1173298749705
aF303.1148873119552
aF303.1149803593494
aF303.11506319654336
aF303.1149571900686
aF303.1157844167273
aF303.11508732843964
aF303.1166257665535
aF303.1146779403871
aF303.11685078669007
aF303.1179156366931
aF303.11591029073196
aF303.1156787935239
aF303.1161007122182
aF303.117038735587
aF303.1168711151433
aF303.1142057079815
aF303.1169536061571
aF303.11482701847973
aF303.11410195771987
aF303.11361236883346
aF303.1162929595237
aF303.11490917198836
aF303.11460599980734
aF303.1141986508583
aF303.1160739713859
aF303.11724740321404
aF303.11584667017024
aF303.1145582097874
aF303.1158077541854
aF303.11429631825126
aF303.11630147562107
aF303.1149419851614
aF303.1150478314855
aF303.11680430258696
aF303.11419470671035
aF303.11715173706557
aF303.11624117714695
aF303.1152656915413
aF303.11547872032753
aF303.11303677983835
aF303.11568733433995
aF303.1147747458186
aF303.11428676508933
aF303.11414274016107
aF303.11530261253193
aF303.1143346250085
aF303.11499614361253
aF303.1152178772532
aF303.1159654974802
aF303.1148386666883
aF303.11416991361153
aF303.11378766180883
aF303.11420812588705
aF303.11633796932637
aF303.11602612326107
aF303.11616087508787
aF303.1153624652132
aF303.114203299983
aF303.11582405475355
aF303.1158282711132
aF303.1164776654255
aF303.11582820825146
aF303.11494558736496
aF303.1151268020225
aF303.1154963411125
aF303.114668104032
aF303.11606414309296
aF303.11436347213544
aF303.11214771545633
aF303.11527344647175
aF303.11314165902934
aF303.1138433449613
aF303.11349865454355
aF303.1119178174766
aF303.11472275122446
aF303.11321673923044
aF303.1144220887964
aF303.11532437503655
aF303.1132137559604
aF303.1139813491111
aF303.11221555651844
aF303.11301877635543
aF303.11351469802054
aF303.11230097921555
aF303.11399426651946
aF303.11410978929035
aF303.113161095962
aF303.11063151738927
aF303.1131648765164
aF303.11316317330903
aF303.11292082489376
aF303.1138624557288
aF303.11303995092464
aF303.11322043619674
aF303.1141667764887
aF303.11375833825895
aF303.1135151323165
aF303.1143941430954
aF303.113392974863
aF303.11492402100333
aF303.1143319717849
aF303.1156940469415
aF303.11219329611237
aF303.11324321282336
aF303.113780600537
aF303.11350824249865
aF303.11406330473307
aF303.1139831173656
aF303.1134999849204
aF303.11387486630156
aF303.11383678811836
aF303.1133199086636
aF303.1128864689597
aF303.112687423366
aF303.1132898019074
aF303.11284357747877
aF303.1128000073174
aF303.11319239517974
aF303.11366266384357
aF303.1121679797834
aF303.1142570535326
aF303.1119469069247
aF303.1124430944035
aF303.1137123634305
aF303.11372799837716
aF303.11380790488414
aF303.11409315682505
aF303.1137772704126
aF303.1123813205943
aF303.11326161840447
aF303.11392802881716
aF303.11154943796964
aF303.1121064956031
aF303.1136040015806
aF303.11202436495506
aF303.11235034265
aF303.1133663090081
aF303.1124895365883
aF303.1135600986289
aF303.11281955406486
aF303.1128075316295
aF303.11378808977577
aF303.1124528112912
aF303.1104192017212
aF303.1125381639862
aF303.11386738005683
aF303.11321986172146
aF303.1129429956881
aF303.11285126801636
aF303.1140526407534
aF303.1118384555324
aF303.1124530550179
aF303.11293297045916
aF303.11320615205017
aF303.11251743637877
aF303.1133734294375
aF303.11380543325095
aF303.1116640442562
aF303.11239696432574
aF303.1135514686619
aF303.11214677316343
aF303.112712777092
aF303.1121510554206
aF303.11227437299397
aF303.1118657797929
aF303.1118416384467
aF303.1152317357247
aF303.11191454645797
aF303.1116298055337
aF303.1120654948448
aF303.1124907228179
aF303.11119755517143
aF303.1108112058301
aF303.11245202645165
aF303.1139244794988
aF303.11130789971855
aF303.11308439830606
aF303.11042285910634
aF303.1110505637919
aF303.113813968273
aF303.1112750558996
aF303.11256351223955
aF303.11130075031275
aF303.1122402409902
aF303.1112147938337
aF303.1127639114703
aF303.11179496776566
aF303.1120274117528
aF303.11148095125236
aF303.11199740169144
aF303.1129896848957
aF303.1119170198055
aF303.11189139193107
aF303.1100581202511
aF303.11097402078497
aF303.1113002725145
aF303.11113395162647
aF303.1092697543383
aF303.1110879605366
aF303.11033929281376
aF303.11263784065056
aF303.11222099263625
aF303.1120765936065
aF303.1114051371742
aF303.1112997543996
aF303.11338698268855
aF303.1107756847995
aF303.1109525030825
aF303.111919513637
aF303.1118104069184
aF303.1124036530711
aF303.11188119482927
aF303.1105347465732
aF303.112142610626
aF303.11122624038467
aF303.1110846704094
aF303.111616908403
aF303.1094731518158
aF303.11070205404945
aF303.11181690016963
aF303.1128288164752
aF303.1129525035135
aF303.111508054582
aF303.1126570197271
aF303.1129918426064
aF303.10974194705125
aF303.1099889786289
aF303.11114671545005
aF303.11192418376623
aF303.11029598270534
aF303.11183509086464
aF303.109874769128
aF303.11075456488857
aF303.11111860777766
aF303.1112816825905
aF303.111862662445
aF303.11242155628685
aF303.1103989468457
aF303.11290799313247
aF303.10973480643753
aF303.11080399253564
aF303.1096043981603
aF303.112247267907
aF303.1109313405654
aF303.1106329296185
aF303.1104419165209
aF303.11088480879295
aF303.1104248674387
aF303.11152135196625
aF303.1116012018376
aF303.11319759491124
aF303.11012766478524
aF303.1099058790939
aF303.11147450158904
aF303.11105343475054
aF303.1109067854011
aF303.10989946511023
aF303.11085056186926
aF303.1119659931075
aF303.11041772053204
aF303.10982954995524
aF303.11107079295135
aF303.11067148574296
aF303.1114201625411
aF303.1111846840194
aF303.1107898015168
aF303.1113977835986
aF303.10898550441004
aF303.11083685847086
aF303.10959078168617
aF303.1105280302736
aF303.1107953974018
aF303.11001943484655
aF303.11081211431076
aF303.10940643561736
aF303.1092280945674
aF303.11043495746037
aF303.11246151638187
aF303.11018480247753
aF303.11011894294825
aF303.11047060541534
aF303.1092520461029
aF303.1107456604495
aF303.1120203077053
aF303.1101751781866
aF303.11128423270014
aF303.10989010465175
aF303.11139693952947
aF303.1091625383008
aF303.11122327078203
aF303.1088929134087
aF303.11048152085266
aF303.1096063708923
aF303.11007521879026
aF303.10991550564484
aF303.10968751501565
aF303.1113295983797
aF303.10878619093415
aF303.10636567318363
aF303.1115207608273
aF303.1104068908608
aF303.11015984664465
aF303.11085298366544
aF303.1104131701983
aF303.1099583146641
aF303.11136070840143
aF303.10896709113405
aF303.11077205580114
aF303.10863175201257
aF303.1100952876004
aF303.11168839583706
aF303.10969821168106
aF303.1093035410657
aF303.1077441399849
aF303.1113393742545
aF303.11071579986464
aF303.1101758029356
aF303.1106381207186
aF303.1086807990958
aF303.10998782589917
aF303.10944780227663
aF303.1096967553116
aF303.10904162219674
aF303.110043367388
aF303.10840598265264
aF303.10911888065294
aF303.1094547446358
aF303.1098304506012
aF303.1099281140151
aF303.11029058721255
aF303.10948222043004
aF303.1107602778809
aF303.1100902210477
aF303.1088662967535
aF303.11048790126057
aF303.11002785254186
aF303.11171556045673
aF303.10883270528313
aF303.10936024949956
aF303.1106877149828
aF303.11139924514964
aF303.1094046075662
aF303.1103040965298
aF303.1098777128791
aF303.1095783451505
aF303.1093257626655
aF303.1099651647967
aF303.10787789001466
aF303.10986207949503
aF303.1091110865674
aF303.1101644533162
aF303.11098235622524
aF303.1080745212959
aF303.1091889850719
aF303.10729919949773
aF303.1087418726724
aF303.10762024760265
aF303.1099325357833
aF303.1094812679856
aF303.1097213503106
aF303.1107239224404
aF303.1082205758616
aF303.1084052754774
aF303.1097982191574
aF303.10905728605434
aF303.10902187685105
aF303.11036316943165
aF303.1096925942879
aF303.1090735369872
aF303.1096657926442
aF303.1099396894593
aF303.1096641623042
aF303.1099243794004
aF303.1088282310196
aF303.1097221380372
aF303.10632712056116
aF303.1082383157512
aF303.11052610023745
aF303.1088981761974
aF303.1104860139151
aF303.10972671492925
aF303.1076697632141
aF303.1093717788303
aF303.1092987145909
aF303.1087142266264
aF303.10937541841616
aF303.10919408372837
aF303.10799037143016
aF303.1078333467883
aF303.1083620802474
aF303.109174418719
aF303.1074607984177
aF303.10753350757324
aF303.10996343731574
aF303.11118246373155
aF303.10804762484526
aF303.1091488490237
aF303.10780762957603
aF303.1083071146092
aF303.111881211411
aF303.10911640105536
aF303.10904416832176
aF303.10818556115544
aF303.1090521780031
aF303.1093029023069
aF303.10828215694295
aF303.10860392422984
aF303.1083894359156
aF303.10963811143193
aF303.10854014804636
aF303.10869207155906
aF303.1088761652965
aF303.10787384367904
aF303.11067580701365
aF303.1079448404988
aF303.10809880359136
aF303.1084930369614
aF303.1065602198075
aF303.10946683996
aF303.10934457123574
aF303.10992200939955
aF303.108980756279
aF303.11027954618044
aF303.1092551337233
aF303.10823174721526
aF303.108185856803
aF303.1087655300211
aF303.1082053444765
aF303.10856610690774
aF303.1092321646891
aF303.1072857093382
aF303.10796024342585
aF303.10810495293515
aF303.109075567438
aF303.10711057543836
aF303.1087913441
aF303.10769031281734
aF303.107673117626
aF303.1079695284541
aF303.1083055097631
aF303.10894938957574
aF303.1067775366224
aF303.109962116929
aF303.10722056816724
aF303.1085655393281
aF303.1079469124828
aF303.1082066077759
aF303.1093155570752
aF303.1091398617702
aF303.10936249203405
aF303.10729805346676
aF303.10818981269176
aF303.10662909151614
aF303.109496529879
aF303.1079904858855
aF303.10795060285545
aF303.1081926895767
aF303.10663415822677
aF303.10693273670523
aF303.1093671920806
aF303.1083049610892
aF303.1061800473697
aF303.10686780635314
aF303.1088018151821
aF303.10757637094616
aF303.1074128890689
aF303.105318790334
aF303.1086262916431
aF303.1079471108878
aF303.10936145012926
aF303.1075783808755
aF303.1067971398872
aF303.1075979116927
aF303.10764009413674
aF303.1087604321091
aF303.1076685312646
aF303.10634845925347
aF303.1083698857206
aF303.10758451433077
aF303.1070626905454
aF303.10824990736495
aF303.106017279523
aF303.1072612189063
aF303.10819367089266
aF303.1091639816565
aF303.106864890201
aF303.1074916562802
aF303.1074131974131
aF303.10853922874685
aF303.1070137943854
aF303.1078453374314
aF303.1068171276762
aF303.1093496192769
aF303.1058820622615
aF303.10811965377513
aF303.1063990751317
aF303.10775105910267
aF303.10738569842607
aF303.1079421506819
aF303.1095832855137
aF303.1080137924249
aF303.10753597271304
aF303.1069795959651
aF303.1071901307737
aF303.1080991432678
aF303.10510793447884
aF303.10742198437055
aF303.1060628620004
aF303.1058566746414
aF303.1066876155483
aF303.10614166989404
aF303.10771452845114
aF303.1078738843729
aF303.1077093324202
aF303.10625833060885
aF303.1085296137004
aF303.1082031401356
aF303.10613338383587
aF303.1094533545271
aF303.1056055123094
aF303.10830328272596
aF303.10802607517917
aF303.10624470279396
aF303.1062062402037
aF303.1068813139621
aF303.1065131682044
aF303.1083426126635
aF303.1073939790625
aF303.10736929680337
aF303.1069467392292
aF303.10622058422723
aF303.10786097666306
aF303.106603126367
aF303.10845948139684
aF303.1091349989353
aF303.10711573342405
aF303.1048891549071
aF303.10796611094645
aF303.1072651984019
aF303.1088355886124
aF303.10703487957954
aF303.1078320617079
aF303.1078864258902
aF303.1077137181446
aF303.1082245584595
aF303.10620741818974
aF303.1095394578631
aF303.10568037891574
aF303.1045251993197
aF303.10797533038414
aF303.107645576931
aF303.1068305155792
aF303.10766708703744
aF303.1082253398241
aF303.1070863130759
aF303.1084941302835
aF303.1064873171611
aF303.10684785244933
aF303.1054230331606
aF303.10721561703133
aF303.10678262558343
aF303.10922217054247
aF303.1073280612667
aF303.10712145207066
aF303.1074373973697
aF303.1067202499636
aF303.1031763194099
aF303.107404518634
aF303.10681069066675
aF303.1075478021269
aF303.10640510237994
aF303.10786498598054
aF303.1067503477907
aF303.10708190171204
aF303.10649494352106
aF303.106273556476
aF303.10742693037196
aF303.108092378082
aF303.10570806349006
aF303.10610249691365
aF303.10618327211904
aF303.10728431496085
aF303.1056224277454
aF303.1076129473018
aF303.1074400636488
aF303.1060195046334
aF303.10748270070764
aF303.106407895557
aF303.10649609480436
aF303.1070084803894
aF303.10553660454116
aF303.10880535391703
aF303.10655615843206
aF303.10686313320105
aF303.10621107284777
aF303.1068563221617
aF303.10597074753184
aF303.10723373293774
aF303.1066577355673
aF303.1070796752527
aF303.1068579130886
aF303.1057872947172
aF303.1055437613062
aF303.1058951548203
aF303.1049196374207
aF303.1063687977981
aF303.1073409238028
aF303.10735610172185
aF303.10469118086684
aF303.10817734670235
aF303.1053059933254
aF303.1068662319465
aF303.1065716578395
aF303.10492977946814
aF303.1066649131919
aF303.10653603919775
aF303.10804402520324
aF303.10445501802053
aF303.10562912528616
aF303.1053932286819
aF303.1060208473446
aF303.1064155657847
aF303.10715703751356
aF303.1060026678043
aF303.1065804710508
aF303.10565163565883
aF303.1075887175259
aF303.10647406457736
aF303.1045389624093
aF303.1073994504757
aF303.1062058738952
aF303.10587786508694
aF303.10648425416304
aF303.1063090361568
aF303.1083933478379
aF303.1057397391846
aF303.1059921402136
aF303.1078314189125
aF303.10664643678547
aF303.1063372003717
aF303.10394402734784
aF303.10699808878616
aF303.1071949554508
aF303.10449541827046
aF303.1054657582168
aF303.10766884425243
aF303.10565272604
aF303.1062134308841
aF303.1074720924496
aF303.10649743503353
aF303.1077855792227
aF303.107042950203
aF303.10701338487166
aF303.1071293004334
aF303.1058280740406
aF303.10594545807874
aF303.10442246127053
aF303.1055869387227
aF303.10643090192724
aF303.107433916658
aF303.10663739999603
aF303.1056111893878
aF303.10701172431465
aF303.1058096577038
aF303.10757452733634
aF303.1046505945506
aF303.1052502190596
aF303.10733092953916
aF303.1046248725296
aF303.1057548657424
aF303.1053925536445
aF303.10664420163806
aF303.10578732455264
aF303.1064078656128
aF303.1044461829683
aF303.1070941167213
aF303.1050758044696
aF303.10531214530494
aF303.10533351743857
aF303.10556744776807
aF303.1044905645357
aF303.1062497361273
aF303.10637716947036
aF303.1058083374854
aF303.1058877061013
aF303.10644345023354
aF303.1059282215576
aF303.1070428090283
aF303.10581130209954
aF303.10597075790633
aF303.10744724608753
aF303.1069853661529
aF303.104414855404
aF303.10505107574176
aF303.10615790716184
aF303.10620566853777
aF303.1055040398255
aF303.1052698039012
aF303.10580109969857
aF303.1043665628571
aF303.10660620368134
aF303.10722124042314
aF303.1040613388851
aF303.1055479075235
aF303.10464111334073
aF303.10529530141326
aF303.103921631315
aF303.10576356283167
aF303.10407198580447
aF303.10560024111265
aF303.10223745929284
aF303.10438470448327
aF303.10581091084885
aF303.10642383086963
aF303.1051946238973
aF303.10535819391623
aF303.1052258087213
aF303.105455943858
aF303.10515004807996
aF303.1054503471668
aF303.1050903625693
aF303.1054284838012
aF303.10591936010684
aF303.10580143136787
aF303.10466047539734
aF303.1052212644347
aF303.1057329246337
aF303.1047164431513
aF303.10511680940755
aF303.1055372988333
aF303.1056226119239
aF303.10682600646516
aF303.1063161956626
aF303.1056123077541
aF303.10508944597245
aF303.10486996823124
aF303.10446205217534
aF303.10439468408964
aF303.10527867374225
aF303.10587812236184
aF303.1067119607018
aF303.10484431675127
aF303.1066495555086
aF303.10434477195435
aF303.1054837769353
aF303.10390022719537
aF303.10729661080535
aF303.1068786196794
aF303.1051925353296
aF303.10567519637516
aF303.1062257279322
aF303.1049917986921
aF303.1051554282402
aF303.10638764899915
aF303.10538217218937
aF303.10508010979095
aF303.1050406753511
aF303.1049905320058
aF303.1055518965561
aF303.1045656347645
aF303.10426259629645
aF303.1056225611934
aF303.10458778331736
aF303.1045606267906
aF303.1042538536984
aF303.1054354727938
aF303.10529431091396
aF303.10499858199796
aF303.10644423694913
aF303.10611784115184
aF303.10603824857253
aF303.10702005203706
aF303.1031850221886
aF303.1041128638041
aF303.1050736357846
aF303.1058361715093
aF303.10468587094834
aF303.105648979411
aF303.1041885925371
aF303.1058696923574
aF303.1065470654582
aF303.10312783689466
aF303.1047239691144
aF303.10468622018095
aF303.10433279201214
aF303.1044125098132
aF303.10433229392873
aF303.10505914331594
aF303.10462533321646
aF303.1042992992337
aF303.1051902339097
aF303.1034396806781
aF303.10280909079256
aF303.10594746626646
aF303.10449229256704
aF303.105294040548
aF303.10557381742433
aF303.1049576514005
aF303.10504641330056
aF303.1030950575193
aF303.10645769089774
aF303.10291339277137
aF303.10527866898883
aF303.1036826492761
aF303.1029635927641
aF303.10447812548693
aF303.10367866161266
aF303.1049956794795
aF303.10544248830547
aF303.10345583527317
aF303.1057777110397
aF303.1053715715219
aF303.1041468532767
aF303.1041837908649
aF303.10378100202246
aF303.1064521831582
aF303.1059521342453
aF303.10394722762123
aF303.10363928441734
aF303.1040633148094
aF303.1037266096796
aF303.10332639168104
aF303.10480373488843
aF303.103791133724
aF303.1040689815686
aF303.1046867581054
aF303.1063681033856
aF303.10438056784903
aF303.10424892415455
aF303.1061322946583
aF303.10328210718995
aF303.1065510898599
aF303.1042024854583
aF303.10360072525
aF303.10570261287023
aF303.1050816299697
aF303.10452014588043
aF303.10402908829934
aF303.1044273782282
aF303.1069483681105
aF303.103237460378
aF303.10347689450714
aF303.1042508413383
aF303.10396589355224
aF303.10728581908216
aF303.1043083034949
aF303.10483480672127
aF303.10616923031455
aF303.10373887290865
aF303.10392567460065
aF303.10403150968983
aF303.1031777971128
aF303.1068617749727
aF303.10575533082897
aF303.10349533684956
aF303.1044608488507
aF303.10402911081684
aF303.10590971068376
aF303.1050081782948
aF303.10408042353896
aF303.106165861823
aF303.1041918538987
aF303.1035040514065
aF303.10404638496186
aF303.1046972675303
aF303.1041914050066
aF303.1053981477508
aF303.1034156540267
aF303.1053295618613
aF303.1042409066066
aF303.10394888504334
aF303.1037962261958
aF303.10437299976616
aF303.10330564552544
aF303.1019962120692
aF303.10432327392977
aF303.10201690218366
aF303.1049660284613
aF303.1026634080621
aF303.10452720371904
aF303.10342374855765
aF303.1042413057607
aF303.1043964198079
aF303.1053719843417
aF303.1050597637584
aF303.104549280886
aF303.10406205874193
aF303.10450408653776
aF303.1027409449313
aF303.1039872227676
aF303.10321303277163
aF303.1042326368131
aF303.1039825542645
aF303.10435108882376
aF303.1032773416174
aF303.1031501828829
aF303.1050498449225
aF303.1013577199235
aF303.1050349643587
aF303.1031334357606
aF303.102637397483
aF303.1041178818556
aF303.10250098413377
aF303.10290969375967
aF303.10186603843226
aF303.1032909098347
aF303.103833481887
aF303.10463801772283
aF303.1043813737054
aF303.10441664115297
aF303.1054070871366
aF303.10323039563633
aF303.10427235211733
aF303.10437182865047
aF303.1023841677144
aF303.1017961152628
aF303.10427656006317
aF303.10345979981935
aF303.10333432481656
aF303.10287685633415
aF303.1051229119933
aF303.10451831447864
aF303.103602913482
aF303.10506830584336
aF303.10232072714126
aF303.10419270545634
aF303.10462217122836
aF303.1042459368362
aF303.1043601697219
aF303.10307105183267
aF303.10366681795745
aF303.10381015370785
aF303.10476358745
aF303.1045267000092
aF303.10331375971896
aF303.10553539065467
aF303.10361585927103
aF303.1028455178113
aF303.10370493906373
aF303.1034031974297
aF303.10281477927083
aF303.10331010562305
aF303.1040940480806
aF303.10375976101716
aF303.1032283116751
aF303.1041400635138
aF303.1027960089496
aF303.1040642063488
aF303.1031524386169
aF303.1060831728849
aF303.10447012223165
aF303.1028124405536
aF303.10376051772926
aF303.103099411264
aF303.103180212568
aF303.10333698856414
aF303.10405958882154
aF303.1041399515461
aF303.10429590173624
aF303.10312142907236
aF303.10427517233495
aF303.1036138613116
aF303.10274298346184
aF303.10310191760647
aF303.10389945811517
aF303.1034288693966
aF303.10337078495104
aF303.1020246010928
aF303.1025992295193
aF303.1040264988024
aF303.1046424786108
aF303.1037720189018
aF303.1028891652747
aF303.10621216102624
aF303.1021660275271
aF303.1038628748475
aF303.10327008561245
aF303.10355951136347
aF303.10376323506205
aF303.10531393544227
aF303.1050156415968
aF303.10310774727805
aF303.10341136579086
aF303.10369615255405
aF303.10273458725754
aF303.10335549830364
aF303.1047925364368
aF303.10436694457695
aF303.1041710306231
aF303.10262495696304
aF303.1025289267543
aF303.10631214135145
aF303.10234009529137
aF303.1044648147088
aF303.1018637666537
aF303.1035689326808
aF303.1045119328994
aF303.10469595423984
aF303.1025516637769
aF303.1021112397752
aF303.10400801229497
aF303.1030267189338
aF303.1022681971972
aF303.10481594715367
aF303.1035111655953
aF303.10325281300277
aF303.1042202038838
aF303.1030702065246
aF303.1056331018291
aF303.10408428950444
aF303.1019635412733
aF303.10400051692096
aF303.103638985294
aF303.10447632001535
aF303.10384913886156
aF303.1043523284631
aF303.10314254990806
aF303.1040076290155
aF303.1024359513846
aF303.10229000907793
aF303.10525893815156
aF303.10395272400245
aF303.1042437995749
aF303.1019032246299
aF303.1041596500213
aF303.1037263620213
aF303.10419976008694
aF303.10466766037433
aF303.10324006129196
aF303.1035752533154
aF303.1050541418684
aF303.10325029783064
aF303.10342661756926
aF303.10259488306605
aF303.1029693301899
aF303.10408883661336
aF303.1035799237468
aF303.10298973471043
aF303.1039766957256
aF303.1040961335063
aF303.10296132679923
aF303.1033882174773
aF303.10351058327075
aF303.1027755920083
aF303.10270935864645
aF303.10301456155094
aF303.1034980983273
aF303.1034633619801
aF303.1028685096533
aF303.10365010354144
aF303.1006831357769
aF303.1048752539914
aF303.1033893618682
aF303.1025341736723
aF303.10316409166313
aF303.1044658785026
aF303.10268709318836
aF303.101896540992
aF303.10218070711613
aF303.10352903348
aF303.10137693708026
aF303.1032316308349
aF303.102480396172
aF303.10372274588127
aF303.1035665957839
aF303.1027349947321
aF303.1031935501998
aF303.10462342389985
aF303.1015418091779
aF303.10352304369076
aF303.10569648859536
aF303.1033500101506
aF303.10275361846067
aF303.1037066830931
aF303.1032378302669
aF303.1025576761573
aF303.1037834960823
aF303.1039705912505
aF303.10366601942286
aF303.10273987947187
aF303.10279993013125
aF303.10263051658256
aF303.10361224396064
aF303.10264146483047
aF303.10236499703126
aF303.10167690686666
aF303.10220102321557
aF303.1028793972209
aF303.1034684921687
aF303.1037068165952
aF303.1031440465291
aF303.1026064459092
aF303.1023984080539
aF303.10237994873074
aF303.1019933684648
aF303.10224158419635
aF303.10211977462944
aF303.10283420375185
aF303.1036627417664
aF303.10055963711136
aF303.10170402305033
aF303.10369003617893
aF303.1036318592832
aF303.1033872145476
aF303.1024511104298
aF303.1034645592078
aF303.10176528789157
aF303.10327104932827
aF303.10248064683265
aF303.10297672990555
aF303.10202529953676
aF303.1038750333817
aF303.1023545555268
aF303.10099546617494
aF303.10137991531167
aF303.10310766185916
aF303.1039932930228
aF303.10253925729086
aF303.10445169069396
aF303.10181773360745
aF303.1029727013441
aF303.10312719837304
aF303.10178474479665
aF303.10302642322796
aF303.1016547118291
aF303.10120669844895
aF303.1029205378082
aF303.10277680250783
aF303.1031111237122
aF303.1035772268654
aF303.1029270983705
aF303.10304354009327
aF303.10302187278927
aF303.103123994173
aF303.10157558022837
aF303.1029449317119
aF303.10165662393405
aF303.10354582591435
aF303.1026815767001
aF303.10324774951545
aF303.1024291804399
aF303.10320049974354
aF303.10349368494803
aF303.10279391368243
aF303.1035481803546
aF303.1048007229084
aF303.1018022717922
aF303.10433166352783
aF303.1023150399009
aF303.1042800761025
aF303.1015733933822
aF303.1024334768495
aF303.1016830308142
aF303.1033155744728
aF303.1035589035358
aF303.1025598616887
aF303.10164910997867
aF303.1023126212826
aF303.1016198087981
aF303.10326064373487
aF303.10320340153464
aF303.10096773456405
aF303.10277750175413
aF303.1036357913452
aF303.1018624278844
aF303.10177598737204
aF303.1022223802841
aF303.10418600562946
aF303.1020767887181
aF303.1028499816589
aF303.10446947743054
aF303.1011308766113
aF303.10175734822644
aF303.10211343276876
aF303.1021662478292
aF303.1007657638262
aF303.102907674753
aF303.1026264453644
aF303.1020222880067
aF303.10291672438916
aF303.10363132624076
aF303.1031228429732
aF303.10384548961144
aF303.10390257744166
aF303.1028202664711
aF303.10339620788557
aF303.10269912046743
aF303.10271465596315
aF303.1019246537995
aF303.10104270825474
aF303.10343554592197
aF303.10394870678834
aF303.10194898558166
aF303.1034223099987
aF303.10335681865024
aF303.10322457321377
aF303.103024523533
aF303.101944498975
aF303.1039394450181
aF303.10180056004475
aF303.10296236251725
aF303.1025086183948
aF303.1029424323991
aF303.1022696292446
aF303.102380339626
aF303.10145566631826
aF303.10307096562724
aF303.1036920388684
aF303.10163170812825
aF303.10223189804003
aF303.1016769109365
aF303.1021355494112
aF303.09996416959405
aF303.09935322266426
aF303.101125298251
aF303.10192311921065
aF303.1028082186531
aF303.1016387154063
aF303.10234030376694
aF303.10180367327814
aF303.1033273910068
aF303.10132129825087
aF303.10271802427263
aF303.10180100978806
aF303.1033930828285
aF303.10044335407184
aF303.1023217154618
aF303.1031965042038
aF303.1028297567224
aF303.10057385383715
aF303.10348320292263
aF303.10201336316214
aF303.1027101355124
aF303.1022308595866
aF303.1003010122792
aF303.10128204075033
aF303.1021096625769
aF303.1041378159196
aF303.10260885630004
aF303.1009212020082
aF303.10270445766344
aF303.10227863096543
aF303.1014217435497
aF303.1009025854886
aF303.1013749534232
aF303.10101052811973
aF303.1013041216755
aF303.10150277025
aF303.10340787745196
aF303.10141742422104
aF303.10124837232274
aF303.1012880351953
aF303.10267486043256
aF303.10329380458484
aF303.1022200003085
aF303.10266652699966
aF303.1020291017447
aF303.1020919520707
aF303.1013036427608
aF303.103920355548
aF303.1020688000598
aF303.1035072569087
aF303.1017006311737
aF303.1022116112955
aF303.1025462843452
aF303.104090312921
aF303.10217501649896
aF303.1022207167578
aF303.102253827881
aF303.10347439299954
aF303.1040405069809
aF303.1015678055237
aF303.1018697633596
aF303.1015313994097
aF303.1015535906773
aF303.1024893365471
aF303.1026555428917
aF303.10168211573307
aF303.1009263876514
aF303.1024181347777
aF303.10344659056983
aF303.1029825329057
aF303.10059706829156
aF303.10181948925316
aF303.1013572351743
aF303.10091804717763
aF303.1002391628281
aF303.10117153192954
aF303.10225182779635
aF303.101005582505
aF303.10204340374105
aF303.10199382071835
aF303.101959741203
aF303.1028321222336
aF303.1009614914187
aF303.10231491153417
aF303.1028631421288
aF303.1003433915543
aF303.10218417212764
aF303.1029326820859
aF303.10342597566466
aF303.10188002673505
aF303.10071093023754
aF303.1036838688116
aF303.1025956675259
aF303.1010411655972
aF303.10232549134
aF303.1004759055428
aF303.1024864242576
aF303.10152395613807
aF303.1012240792613
aF303.1009821493832
aF303.10235232996723
aF303.1017560815723
aF303.10176352004214
aF303.10178374660046
aF303.1040288399856
aF303.10159349596836
aF303.10134214936363
aF303.10329645467976
aF303.1025990644901
aF303.10055160003816
aF303.10187689560036
aF303.1009259839849
aF303.1009916051168
aF303.10368575192
aF303.10172073303085
aF303.1010916860102
aF303.1020266932037
aF303.1011284343819
aF303.1021061035514
aF303.1005488793562
aF303.10008507954035
aF303.1029432248994
aF303.1027766555244
aF303.10224953485334
aF303.1020830899323
aF303.10282063970465
aF303.10198805112657
aF303.10277922751976
aF303.1028584233399
aF303.10072966723493
aF303.1011915559021
aF303.1023402823973
aF303.1001841022889
aF303.1008459227725
aF303.1007884246631
aF303.10227651475657
aF303.1043324648793
aF303.1026080386578
aF303.10223549315504
aF303.10185413951433
aF303.10202863671935
aF303.10217549120875
aF303.1019651991737
aF303.10113676314324
aF303.10059145869843
aF303.1019431041061
aF303.10300118475203
aF303.10268906497265
aF303.10236280510685
aF303.10277295343167
aF303.10108978204227
aF303.10310431132405
aF303.09999818633986
aF303.10286176399364
aF303.10055922963693
aF303.101971788757
aF303.1015900291061
aF303.1025755394734
aF303.1008520621413
aF303.10029079377006
aF303.10187334652574
aF303.1012883406469
aF303.10236086631744
aF303.1021779819069
aF303.10077546057215
aF303.09999968105257
aF303.10223722079303
aF303.1022970926898
aF303.10249694872647
aF303.10024208798643
aF303.1004886586381
aF303.1004551634844
aF303.1013468866522
aF303.100816333196
aF303.1010390180793
aF303.10123100715276
aF303.1016563525564
aF303.1011223436612
aF303.1021306984283
aF303.10295168804646
aF303.1021574652498
aF303.1023034258574
aF303.1013864890067
aF303.1038893105904
aF303.10205573987986
aF303.10257464257535
aF303.1027318053186
aF303.1017975499337
aF303.1037568891261
aF303.10182058655727
aF303.0992523899606
aF303.09981641633163
aF303.1009320454833
aF303.1008004579737
aF303.10169802975497
aF303.10133965118206
aF303.10253756826734
aF303.10088360394644
aF303.1014599896827
aF303.10134042835216
aF303.101313562531
aF303.1021624790875
aF303.10059087946684
aF303.10034444600177
aF303.1009150273352
aF303.1017881166463
aF303.10167154665965
aF303.1022876197399
aF303.10007344642236
aF303.0999577421736
aF303.1003743521455
aF303.1017505092734
aF303.10122281107766
aF303.1011953654129
aF303.10233879958383
aF303.1025650098452
aF303.1011604237054
aF303.1012594289232
aF303.1006302916481
aF303.1007245260913
aF303.1013288208157
aF303.101452491847
aF303.10031119500024
aF303.099667762912
aF303.10118518620266
aF303.09997780382207
aF303.09912230332884
aF303.1015989671734
aF303.1003964137024
aF303.100583849996
aF303.10105044548396
aF303.10333228893455
aF303.1012828213061
aF303.1020455736944
aF303.1003124862998
aF303.0998623707341
aF303.1010570969075
aF303.10186404749834
aF303.1021922944548
aF303.09968331053614
aF303.10235504787266
aF303.09954230665505
aF303.1003477792582
aF303.1006979610431
aF303.1003754891161
aF303.1008434386749
aF303.1004409550301
aF303.10022632682166
aF303.1021352937575
aF303.09978748999305
aF303.10229781173297
aF303.10098152096003
aF303.10230984234425
aF303.1005891632111
aF303.1022156975229
aF303.1024716288453
a(lp2
F0.0
aF0.0
aF9.821057061132537e-12
aF1.4417886866883002e-10
aF1.0576889533268139e-09
aF5.227802105613949e-09
aF1.978154137073189e-08
aF6.159489370039045e-08
aF1.6525753029853578e-07
aF3.942365250882908e-07
aF8.553659335040226e-07
aF1.7166716872430719e-06
aF3.22818349505142e-06
aF5.74473450374391e-06
aF9.74942982796167e-06
aF1.5876654796184805e-05
aF2.4933213183307914e-05
aF3.7914895203145916e-05
aF5.601471957935263e-05
aF8.061966879839122e-05
aF0.0001132944538573779
aF0.00015575223226384268
aF0.00020981283704290708
aF0.00027734959621376735
aF0.0003602265822211559
aF0.0004602288074170489
aF0.0005789883117352311
aF0.0007179094809964732
aF0.0008780968928796439
aF0.0010602876791719403
aF0.0012647884478973624
aF0.0014914163511098664
aF0.0017394457185427117
aF0.0020075640008148012
aF0.0022938413642028107
aF0.0025957167880717312
aF0.0029100011871235304
aF0.00323289635360941
aF0.0035600281794333248
aF0.0038864936103589045
aF0.0042069221616729624
aF0.004515553196771316
aF0.0048063288551374456
aF0.005073000335794261
aF0.005309243655717098
aF0.005508780578548434
aF0.005665500742129289
aF0.005773581798466929
aF0.005827605578097272
aF0.005822669308869473
aF0.005754490833662665
aF0.005619505709545356
aF0.0054149533182489985
aF0.005138949567319791
aF0.0047905450084329455
aF0.0043697681051982394
aF0.0038776531571617055
aF0.0033162514620831275
aF0.00268862402959503
aF0.001998815187973096
aF0.0012518077739033869
aF0.0004534609315377462
aF-0.00038956907225522896
aF-0.0012699249300953792
aF-0.0021796604603627214
aF-0.0031103667820670177
aF-0.004053309433407372
aF-0.0049995727890602285
aF-0.005940207734416315
aF-0.006866378424043539
aF-0.007769504240075711
aF-0.008641393503898842
aF-0.00947436587300562
aF-0.010261361073584496
aF-0.01099603292593998
aF-0.011672828849594799
aF-0.01228705544817955
aF-0.012834930583614746
aF-0.013313622247623919
aF-0.013721274785351975
aF-0.01405702340508672
aF-0.014320998026723618
aF-0.014514316929342155
aF-0.01463906915217283
aF-0.014698282713258286
aF-0.014695874711341884
aF-0.014636580265073702
aF-0.014525859524642639
aF-0.014369784295339047
aF-0.0141749078145714
aF-0.013948123529538878
aF-0.013696520724636719
aF-0.013427244625460565
aF-0.013147365606788744
aF-0.012863758459182731
aF-0.012582990976427219
aF-0.012311221971215843
aF-0.012054110509328647
aF-0.011816738773961303
aF-0.011603550173391463
aF-0.011418302932282702
aF-0.011264038158209679
aF-0.01114306045379718
aF-0.011056928823449958
aF-0.01100645632399093
aF-0.01099171857334655
aF-0.011012072956149276
aF-0.011066191062457105
aF-0.011152106367816921
aF-0.01126727801703894
aF-0.011408670146950689
aF-0.01157284437385598
aF-0.011756061191532798
aF-0.011954384940448119
aF-0.01216378720442665
aF-0.012380244480318584
aF-0.012599827001557371
aF-0.01281877656763235
aF-0.013033572220576356
aF-0.013240983288738737
aF-0.01343810964225103
aF-0.013622409447275535
aF-0.013791715222942206
aF-0.013944239001819896
aF-0.014078566912806713
aF-0.014193643439918031
aF-0.014288746678103066
aF-0.014363457719553264
aF-0.014417628543281841
aF-0.014451352385055596
aF-0.014464938624322283
aF-0.014458891707006325
aF-0.014433891634813064
aF-0.014390773027358476
aF-0.014330501211329224
aF-0.014254146561892136
aF-0.014162860461555031
aF-0.014057855989969637
aF-0.013940393934456332
aF-0.013811771766579177
aF-0.013673311807572544
aF-0.013526345550425525
aF-0.013372193280859854
aF-0.013212140553804293
aF-0.013047414838305725
aF-0.012879166111589008
aF-0.012708454091370907
aF-0.012536242817283225
aF-0.012363401767928103
aF-0.012190712217773375
aF-0.012018877478887259
aF-0.01184853540098853
aF-0.011680271145432972
aF-0.0115146282730785
aF-0.011352116984309431
aF-0.011193220042289075
aF-0.011038398967382812
aF-0.010888104251274735
aF-0.010742792387601625
aF-0.010602949533425065
aF-0.010469118325370494
aF-0.010341922660814724
aF-0.010222085442625553
aF-0.01011043545347539
aF-0.010007901134251079
aF-0.009915491231290987
aF-0.009834264647767604
aF-0.009765293166634458
aF-0.009709620348708169
aF-0.009668218610255462
aF-0.009641945549350649
aF-0.009631500606263988
aF-0.009637383718572675
aF-0.009659857925270385
aF-0.009698917317870601
aF-0.009754260595430697
aF-0.009825269659871634
aF-0.009910992799425627
aF-0.01001013290974288
aF-0.010121042372442006
aF-0.010241727029448783
aF-0.010369861672694745
aF-0.010502818670715982
aF-0.010637710126064601
aF-0.010771442535401897
aF-0.01090078191193716
aF-0.011022427475359286
aF-0.011133092680510919
aF-0.011229591886213483
aF-0.011308929265431495
aF-0.011368385322718466
aF-0.011405596415017306
aF-0.01141862319041051
aF-0.01140600453749376
aF-0.011366794987370104
aF-0.011300585292370194
aF-0.011207507075448075
aF-0.011088222643615201
aF-0.010943901029504096
aF-0.010776181872164722
aF-0.010587129673119524
aF-0.010379181239267593
aF-0.010155088306745764
aF-0.009917856256456636
aF-0.00967067945225989
aF-0.009416874034045907
aF-0.009159809313778668
aF-0.00890283887719049
aF-0.00864923231318084
aF-0.008402108679232839
aF-0.008164373613743208
aF-0.007938662950336121
aF-0.007727295787345106
aF-0.00753223892125836
aF-0.007355083346581294
aF-0.007197033035720166
aF-0.007058905980159068
aF-0.006941146848888738
aF-0.006843850196965492
aF-0.0067667936647384215
aF-0.00670948114577305
aF-0.006671194919562382
aF-0.006651053442691464
aF-0.006648069720488211
aF-0.006661205131434295
aF-0.006689414836565886
aF-0.006731682529178593
aF-0.006787043691749525
aF-0.0068545975291608935
aF-0.006933508316015091
aF-0.00702299720290983
aF-0.007122326000992415
aF-0.007230775300638495
aF-0.007347619883022025
aF-0.007472104012569488
aF-0.007603418141632735
aF-0.0077406779556697
aF-0.00788290709992145
aF-0.008029025633534036
aF-0.008177846194674135
aF-0.008328078698198392
aF-0.008478342404353502
aF-0.008627182145052243
aF-0.008773084790329172
aF-0.0089144935893699
aF-0.009049820623240685
aF-0.009177459023341938
aF-0.009295796263954454
aF-0.009403228985471246
aF-0.009498179308728785
aF-0.009579112123539632
aF-0.009644552108952664
aF-0.00969309869776501
aF-0.009723437304690632
aF-0.009734346093189952
aF-0.009724699380849534
aF-0.009693470904359753
aF-0.009639741270281834
aF-0.00956271307809973
aF-0.009461734971461648
aF-0.009336333803618015
aF-0.009186253311382871
aF-0.009011497988694276
aF-0.008812381102777923
aF-0.008589575150676937
aF-0.008344161731045683
aF-0.00807767658722358
aF-0.007792144843764629
aF-0.0074901010795751155
aF-0.007174588872634023
aF-0.00684913534645658
aF-0.006517698612614768
aF-0.006184589564898524
aF-0.005854372989650691
aF-0.005531755142732926
aF-0.005221465354804805
aF-0.004928138126226632
aF-0.004656200279068966
aF-0.00440976615784853
aF-0.004192543511108497
aF-0.004007753243264881
aF-0.003858066251967818
aF-0.0037455590274779542
aF-0.003671687353603176
aF-0.0036372762008599255
aF-0.003642524499127548
aF-0.0036870244063337424
aF-0.0037697940367426843
aF-0.0038893207185691178
aF-0.004043610739612601
aF-0.004230242090851927
aF-0.004446418015484776
aF-0.004689020172102969
aF-0.004954660761371374
aF-0.005239733452931892
aF-0.005540463621963635
aF-0.00585295885984577
aF-0.006173260359756321
aF-0.006497394621509344
aF-0.006821423660460315
aF-0.007141491256923072
aF-0.007453862990622052
aF-0.007754958661574757
aF-0.008041376842465787
aF-0.008309912340484631
aF-0.008557567889556859
aF-0.008781561449549682
aF-0.008979330518729636
aF-0.00914853511794925
aF-0.009287061339050018
aF-0.009393027444938747
aF-0.009464794553369817
aF-0.009500983684278212
aF-0.009500500063458178
aF-0.009462564287621081
aF-0.009386748866942943
aF-0.009273018068689687
aF-0.009121768728094896
aF-0.008933869476653282
aF-0.008710695557619065
aF-0.008454156164191191
aF-0.00816671125640383
aF-0.007851375339355161
aF-0.007511706738508835
aF-0.007151781920464572
aF-0.006776154650895427
aF-0.006389799279272578
aF-0.005998037045940019
aF-0.005606444881549536
aF-0.005220747833937435
aF-0.004846698324390962
aF-0.004489946999549003
aF-0.004155910474715687
aF-0.0038496407458971467
aF-0.0035757000131861868
aF-0.0033380438767026455
aF-0.0031399156698953333
aF-0.002983755024215438
aF-0.002871124610534138
aF-0.00280265986187258
aF-0.002778046054816124
aF-0.002796024948942983
aF-0.0028544305412348636
aF-0.0029502516720322546
aF-0.0030797180494402387
aF-0.003238405092675508
aF-0.0034213519940318993
aF-0.0036231873043306414
aF-0.003838257397377418
aF-0.004060754683939863
aF-0.0042848436886774015
aF-0.004504783996842229
aF-0.0047150496035497065
aF-0.004910443932899977
aF-0.005086208601037741
aF-0.0052381225711681965
aF-0.005362587723623746
aF-0.005456697540232101
aF-0.005518287096805582
aF-0.0055459638698144775
aF-0.005539119562344814
aF-0.005497923696031684
aF-0.005423300376194729
aF-0.005316889773696322
aF-0.005180995025531068
aF-0.0050185144580279974
aF-0.004832859826004004
aF-0.004627863668701464
aF-0.004407681220384256
aF-0.0041766928772204205
aF-0.003939411714783267
aF-0.003700398072317408
aF-0.003464181258202087
aF-0.0032351877036107214
aF-0.0030176749404035685
aF-0.00281567076642608
aF-0.0026329167678699663
aF-0.0024728155551661728
aF-0.0023383818624866065
aF-0.0022321985215575752
aF-0.002156378699518921
aF-0.0021125358788754104
aF-0.002101763233223585
aF-0.0021246239215091784
aF-0.002181152667933548
aF-0.0022708670138680666
aF-0.0023927850934218095
aF-0.0025454469665044366
aF-0.0027269384800655523
aF-0.00293491890911186
aF-0.0031666546578279662
aF-0.0034190605768370254
aF-0.003688748578198698
aF-0.003972081455045332
aF-0.004265229464640633
aF-0.004564228561187795
aF-0.004865040851529192
aF-0.00516361826996154
aF-0.005455969251370044
aF-0.005738226435354611
aF-0.00600671252470186
aF-0.006258001358611711
aF-0.0064889709938672786
aF-0.006696845215768442
aF-0.006879220934862564
aF-0.007034081740547842
aF-0.0071598007855828765
aF-0.007255137480605185
aF-0.007319232031344892
aF-0.007351600446563352
aF-0.0073521310594472835
aF-0.007321082295266548
aF-0.007259080471004497
aF-0.007167115592455065
aF-0.007046532315711969
aF-0.006899012964290059
aF-0.006726550434496305
aF-0.00653141092540328
aF-0.006316088742137983
aF-0.006083256917361488
aF-0.005835717677142075
aF-0.00557635593895699
aF-0.00530809739409119
aF-0.005033871055329011
aF-0.004756575400833397
aF-0.004479047571779758
aF-0.004204035679759214
aF-0.003934174421798829
aF-0.0036719638305045444
aF-0.003419750497122008
aF-0.0031797106592735933
aF-0.002953835558504033
aF-0.002743920579240371
aF-0.0025515591921567386
aF-0.0023781404521142995
aF-0.0022248467497527407
aF-0.002092648590466914
aF-0.0019822952162939548
aF-0.0018943022155272725
aF-0.0018289383804441916
aF-0.0017862137882175611
aF-0.0017658703924641674
aF-0.0017673763450376538
aF-0.0017899256918186728
aF-0.0018324447356400306
aF-0.00189360445157979
aF-0.0019718361386713945
aF-0.0020653473133164448
aF-0.002172137307420794
aF-0.002290015225257844
aF-0.0024166245298238007
aF-0.0025494779243217932
aF-0.002686004229689084
aF-0.00282360661322909
aF-0.0029597291632100656
aF-0.003091926753857608
aF-0.0032179322482040803
aF-0.0033357159115433247
aF-0.003443533787357167
aF-0.0035399635015896506
aF-0.0036239270786631622
aF-0.003694701187917165
aF-0.0037519159250439076
aF-0.003795543618042732
aF-0.003825879299854924
aF-0.003843514635573397
aF-0.0038493072254263184
aF-0.0038443471681633328
aF-0.003829922462381926
aF-0.003807484023153526
aF-0.003778609562724259
aF-0.00374496387670154
aF-0.003708252592497425
aF-0.0036701679620700957
aF-0.003632327932210316
aF-0.0035962119491642656
aF-0.003563098109657484
aF-0.003534006717178794
aF-0.0035096553973618058
aF-0.003490430569207477
aF-0.003476379047312499
aF-0.003467221784608476
aF-0.003462389350205446
aF-0.0034610762042274106
aF-0.0034623090779089274
aF-0.0034650242658077497
aF-0.0034681490012627887
aF-0.003470682561876901
aF-0.0034717728369311235
aF-0.0034707838885925445
aF-0.00346735024907715
aF-0.0034614147931616686
aF-0.003453248474829423
aF-0.003443451060491748
aF-0.003432932094962241
aF-0.0034228715301056014
aF-0.0034146605180119896
aF-0.0034098246856297696
aF-0.0034099337980226965
aF-0.0034165023687682777
aF-0.003430886015323414
aF-0.003454179259930001
aF-0.0034871218883869804
aF-0.0035300213274521296
aF-0.0035826967564172307
aF-0.0036444477443617865
aF-0.00371404794678303
aF-0.003789763605759112
aF-0.003869396466383266
aF-0.00395034997837752
aF-0.004029715908714077
aF-0.004104376546391373
aF-0.004171116786553437
aF-0.004226741031433719
aF-0.004268191067536666
aF-0.00429266133296526
aF-0.004297706881543594
aF-0.004281337987107647
aF-0.004242095122032054
aF-0.004179099596512569
aF-0.004092078002263934
aF-0.003981361603104198
aF-0.003847863890070057
aF-0.0036930404465678472
aF-0.0035188355287043786
aF-0.003327619689745448
aF-0.003122122218571088
aF-0.002905360982680895
aF-0.002680570757633193
aF-0.0024511299861957134
aF-0.002220485890773631
aF-0.00199207910913093
aF-0.0017692708105853969
aF-0.0015552765083366488
aF-0.0013531107407762641
aF-0.0011655453124556627
aF-0.0009950814611298859
aF-0.0008439341207870925
aF-0.0007140250713794136
aF-0.0006069812433188463
aF-0.0005241343489764291
aF-0.00046651819462932765
aF-0.0004348610432855612
aF-0.00042957251082372124
aF-0.00045072661424396107
aF-0.0004980435075383571
aF-0.0005708724316775787
aF-0.000668178592811458
aF-0.0007885372371896472
aF-0.000930138501675765
aF-0.001090806388400499
aF-0.0012680342159162947
aF-0.0014590367823335616
aF-0.0016608168128093308
aF-0.0018702414761992776
aF-0.0020841242126819607
aF-0.0022993067430710852
aF-0.0025127355030215444
aF-0.002721527069938597
aF-0.002923019369701192
aF-0.0031148085249707988
aF-0.0032947732518094183
aF-0.003461089072421327
aF-0.0036122340464608865
aF-0.0037469871129250376
aF-0.0038644197415570757
aF-0.003963881320640111
aF-0.0040449785078874026
aF-0.004107548841904392
aF-0.004151629682424728
aF-0.004177425086576256
aF-0.004185274635862989
aF-0.004175628271191042
aF-0.004149029711808546
aF-0.004106109122671129
aF-0.004047584298287873
aF-0.0039742686818380986
aF-0.0038870837041105944
aF-0.0037870722859921955
aF-0.003675410077081909
aF-0.0035534112526541192
aF-0.0034225267873654536
aF-0.0032843350748022544
aF-0.003140526599252793
aF-0.002992884694661276
aF-0.002843262893488928
aF-0.002693557325708103
aF-0.002545672016513905
aF-0.002401476453287395
aF-0.0022627572684872505
aF-0.0021311674122649984
aF-0.002008175925042101
aF-0.0018950202534206268
aF-0.0017926624964823004
aF-0.0017017515423652977
aF-0.0016225939275822244
aF-0.0015551363483992807
aF-0.0014989618775776005
aF-0.0014533008246212606
aF-0.00141705667719218
aF-0.0013888476844233857
aF-0.001367064413231214
aF-0.0013499423206901023
aF-0.0013356466525999474
aF-0.0013223658336863331
aF-0.0013084090093408846
aF-0.0012923028242680153
aF-0.0012728816139106224
aF-0.0012493645223599914
aF-0.0012214134756878187
aF-0.0011891678481153968
aF-0.0011532547179032042
aF-0.001114776696309342
aF-0.0010752811608747902
aF-0.0010367148939449925
aF-0.0010013671741607335
aF-0.0009718031468556183
aF-0.0009507885696872524
aF-0.0009412074612630214
aF-0.0009459756560390104
aF-0.0009679543411627196
aF-0.0010098669696737184
aF-0.0010742210146210073
aF-0.0011632344883476568
aF-0.0012787668183301079
aF-0.0014222541119699988
aF-0.0015946493281882245
aF-0.0017963681638341615
aF-0.002027241748472577
aF-0.002286477588920971
aF-0.002572630358903747
aF-0.0028835838714274652
aF-0.00321654510903693
aF-0.0035680511717361835
aF-0.003933990882442987
aF-0.004309643896931837
aF-0.0046897400715894275
aF-0.005068540035991428
aF-0.005439935428001649
aF-0.00579756539180077
aF-0.006134945146295171
aF-0.006445602370957464
aF-0.006723217415382739
aF-0.006961763801037905
aF-0.007155646113370378
aF-0.007299832866393115
aF-0.007389981890479909
aF-0.0074225553314724675
aF-0.007394920890703446
aF-0.007305435757083734
aF-0.007153509846257098
aF-0.006939645549235113
aF-0.006665452236476242
aF-0.00633363507451796
aF-0.005947958836197189
aF-0.005513187783699226
aF-0.005035002364605667
aF-0.004519893186574942
aF-0.003975033376987039
aF-0.003408132077457929
aF-0.00282727381658989
aF-0.0022407499344385246
aF-0.0016568886360877437
aF-0.0010838899624771438
aF-0.0005296713425562229
aF-1.7282315824951702e-06
aF0.0004929873560285344
aF0.0009481692626522013
aF0.0013582406480222885
aF0.0017184195422779431
aF0.0020247681459520505
aF0.002274227606801524
aF0.0024646396311741384
aF0.002594755647629923
aF0.00266423328494897
aF0.0026736188903089307
aF0.0026243147629965526
aF0.0025185314808042992
aF0.002359228075803135
aF0.002150043948331667
aF0.0018952258155883162
aF0.001599551660072876
aF0.0012682523721370496
aF0.0009069308597926403
aF0.0005214782093965803
aF0.00011798714875031799
aF-0.00029733598042104066
aF-0.0007182589514872789
aF-0.0011386093383608106
aF-0.0015523570571680458
aF-0.001953693478675649
aF-0.0023371070938722014
aF-0.002697455335800718
aF-0.003030031802756038
aF-0.003330628200488384
aF-0.0035955905409772613
aF-0.0038218690254384034
aF-0.004007060303674201
aF-0.004149439727972143
aF-0.004247980937837054
aF-0.004302361451576539
aF-0.004312955043325795
aF-0.004280812989732711
aF-0.004207636440764893
aF-0.004095741698626109
aF-0.0039480190913746775
aF-0.003767884560067393
aF-0.003559222251354971
aF-0.0033263173707114503
aF-0.003073780647268896
aF-0.0028064671958636734
aF-0.0025293923086259543
aF-0.0022476455200598025
aF-0.001966303685806687
aF-0.0016903442736089381
aF-0.001424560784155616
aF-0.001173482389799533
aF-0.0009412994489124843
aF-0.0007317959987227332
aF-0.000548290115751397
aF-0.0003935831234189114
aF-0.0002699185162212782
aF-0.00017895094715624922
aF-0.00012172527599657446
aF-9.866621658080421e-05
aF-0.00010958029480939963
aF-0.00015367243235044512
aF-0.0002295787075476999
aF-0.00033541528617848975
aF-0.0004688422302466008
aF-0.0006271399567417265
aF-0.0008072947717937981
aF-0.00100608805627266
aF-0.0012201824290194077
aF-0.0014461987463412998
aF-0.0016807800437118438
aF-0.0019206411557506538
aF-0.002162604594160331
aF-0.002403624398509453
aF-0.002640800605255932
aF-0.0028713874039374165
aF-0.003092797450663123
aF-0.003302603701489304
aF-0.003498539618861673
aF-0.0036784989827068474
aF-0.0038405370381692926
aF-0.003982874623086551
aF-0.0041039063979653205
aF-0.004202213923982327
aF-0.004276584173200298
aF-0.00432603343531675
aF-0.00434983484428694
aF-0.0043475453829674845
aF-0.0043190268803239345
aF-0.004264456326128537
aF-0.0041843232504041716
aF-0.004079414750912045
aF-0.003950791411239076
aF-0.0037997592555905884
aF-0.0036278429118621735
aF-0.0034367630697402177
aF-0.0032284186967763105
aF-0.0030048730225757953
aF-0.002768342163328945
aF-0.0025211854508016248
aF-0.0022658962220251893
aF-0.002005090976734926
aF-0.001741494051089413
aF-0.001477915028152056
aF-0.0012172172649423897
aF-0.0009622778030906568
aF-0.0007159409310798814
aF-0.00048096915716481944
aF-0.00025999564437442947
aF-5.548096387881586e-05
aF0.0001303248045023379
aF0.0002954146555981367
aF0.00043805187740014604
aF0.000556791523128651
aF0.0006504960297340536
aF0.000718345816203072
aF0.0007598467661123957
aF0.0007748368094152414
aF0.0007634926212727934
aF0.0007263352396567198
aF0.0006642318944437456
aF0.0005783915644534524
aF0.00047035289424922334
aF0.000341963923777779
aF0.0001953536683870133
aF3.289640056935051e-05
aF-0.00014282988327228043
aF-0.000329089444714743
aF-0.0005230382449726759
aF-0.0007217756195792576
aF-0.0009223961945171051
aF-0.0011220396197083723
aF-0.0013179361364274958
aF-0.001507447180064663
aF-0.0016881016163590962
aF-0.001857629108169867
aF-0.0020139919779690084
aF-0.002155415875801087
aF-0.002280418298002871
aF-0.002387833289387961
aF-0.0024768308381454556
aF-0.002546930302779819
aF-0.002598007906505814
aF-0.0026302980209781637
aF-0.0026443867558798135
aF-0.002641195725344786
aF-0.0026219549577578354
aF-0.002588166077697134
aF-0.0025415583764897567
aF-0.002484040255439043
aF-0.0024176473025349023
aF-0.002344487309415522
aF-0.002266682769114596
aF-0.0021863124809858433
aF-0.002105354868445351
aF-0.002025636008255185
aF-0.0019487852719654577
aF-0.0018762010436632166
aF-0.0018090282274364556
aF-0.0017481482299156201
aF-0.001694180978376178
aF-0.0016474975512142623
aF-0.0016082413036741946
aF-0.0015763552201720865
aF-0.0015516139729108108
aF-0.0015336603178712775
aF-0.001522045394047817
aF-0.001516270547071712
aF-0.0015158262014423449
aF-0.0015202230755263755
aF-0.0015290126386733706
aF-0.0015417958307541461
aF-0.0015582208505342588
aF-0.0015779721808600764
aF-0.0016007540079570903
aF-0.0016262715563351232
aF-0.0016542132113728585
aF-0.0016842348748314718
aF-0.0017159469934768662
aF-0.001748905064283419
aF-0.001782605289499159
aF-0.001816486581556141
aF-0.001849938073043981
aF-0.001882309567874103
aF-0.0019129225770719682
aF-0.0019410812576760588
aF-0.001966084110257761
aF-0.0019872376973761484
aF-0.002003873121450143
aF-0.0020153652781334857
aF-0.002021154448675179
aF-0.0020207696348704756
aF-0.0020138528923822484
aF-0.0020001834110746305
aF-0.001979699212182262
aF-0.00195251362907536
aF-0.0019189237887425297
aF-0.0018794091365576604
aF-0.0018346192479930992
aF-0.0017853514516815907
aF-0.0017325199831013263
aF-0.0016771190723167185
aF-0.0016201821646926438
aF-0.001562738890349008
aF-0.0015057714528997584
aF-0.0014501727765427776
aF-0.0013967088375466314
aF-0.0013459866392673595
aF-0.0012984283570584268
aF-0.0012542522454948505
aF-0.001213461520324429
aF-0.0011758427111223536
aF-0.001140974719675575
aF-0.0011082492802722609
aF-0.0010769028513533212
aF-0.0010460590181848742
aF-0.0010147790670582133
aF-0.0009821168421607846
aF-0.0009471732957891977
aF-0.0009091471090901032
aF-0.0008673800401704298
aF-0.0008213977702205127
aF-0.0007709476078871394
aF-0.0007160332487672022
aF-0.00065694464531031
aF-0.0005942790999853297
aF-0.0005289490199087248
aF-0.0004621728830722346
aF-0.000395448543725093
aF-0.0003305108590340607
aF-0.00026927731125443
aF-0.0002137853368589651
aF-0.00016612421139571427
aF-0.00012836352419595324
aF-0.00010247995494877964
aF-9.02843041508384e-05
aF-9.335119754785045e-05
aF-0.00011295402005351503
aF-0.00015000734696925193
aF-0.00020501890682618877
aF-0.00027805331459966013
aF-0.0003687103831922603
aF-0.00047612119071995283
aF-0.0005989642307460489
aF-0.0007355013055337755
aF-0.0008836293915093118
aF-0.0010409426267792123
aF-0.0012047989585147075
aF-0.0013723880756919514
aF-0.0015407993055404222
aF-0.0017070889459119749
aF-0.0018683461856865491
aF-0.002021756314592117
aF-0.002164660038334019
aF-0.002294608421794887
aF-0.002409413757910572
aF-0.002507196759626528
aF-0.002586429768175218
aF-0.0026459748615812054
aF-0.002685115166470954
aF-0.00270357680238639
aF-0.002701537874635397
aF-0.0026796212816835954
aF-0.002638870570090736
aF-0.0025807110553518293
aF-0.0025068996183487463
aF-0.0024194655877297403
aF-0.002320643826232326
aF-0.002212801520262954
aF-0.002098361967895607
aF-0.001979729935725003
aF-0.0018592228601950847
aF-0.0017390110232540234
aF-0.001621068781363233
aF-0.0015071379778691925
aF-0.0013987035386288074
aF-0.0012969802382222899
aF-0.0012029092323551497
aF-0.0011171630748760973
aF-0.001040157972934494
aF-0.0009720717561318398
aF-0.0009128659833989441
aF-0.0008623113253789978
aF-0.0008200164358947959
aF-0.000785460854610804
aF-0.0007580313737319006
aF-0.0007370592381049184
aF-0.0007218539469455495
aF-0.000711729445028217
aF-0.000706020072239248
aF-0.000704085976909599
aF-0.0007053100846526189
aF-0.0007090904665571615
aF-0.0007148323665718757
aF-0.0007219431727142861
aF-0.000729832022104903
aF-0.0007379144422015505
aF-0.0007456219059699228
aF-0.0007524161353414454
aF-0.0007578076939534415
aF-0.0007613776283900663
aF-0.0007628002471342878
aF-0.0007618650942079652
aF-0.0007584965962393759
aF-0.0007527702897036426
aF-0.0007449246866637606
aF-0.0007353676664855933
aF-0.0007246761002828013
aF-0.0007135876407432107
aF-0.0007029842338430594
aF-0.0006938676411393074
aF-0.0006873279702614969
aF-0.0006845067500677178
aF-0.0006865561159646097
aF-0.0006945951111701921
aF-0.0007096635353594036
aF-0.0007326740546204973
aF-0.0007643647016849834
aF-0.0008052555708423693
aF-0.0008556140251728041
aF-0.0009154314819258847
aF-0.0009844127207793367
aF-0.0010619771769151743
aF-0.00114727148383965
aF-0.0012391929701960193
aF-0.0013364237132571107
aF-0.0014374736029058141
aF-0.0015407295918794736
aF-0.001644508257487922
aF-0.0017471097522799982
aF-0.001846871640388061
aF-0.0019422206755109405
aF-0.002031720551076232
aF-0.002114114473340828
aF-0.0021883617627628704
aF-0.0022536667134501497
aF-0.0023094968261259835
aF-0.0023555880726417442
aF-0.0023919371248072854
aF-0.002418782725951561
aF-0.002436579032526817
aF-0.0024459630507878962
aF-0.002447717698868509
aF-0.0024427322956879142
aF-0.002431962740085084
aF-0.002416393464112978
aF-0.0023970026301062377
aF-0.0023747316813763175
aF-0.0023504603286224617
aF-0.002324987725852848
aF-0.0022990194574120486
aF-0.0022731585824062417
aF-0.0022478986676538106
aF-0.0022236178289343936
aF-0.0022005740794782814
aF-0.0021789026525088923
aF-0.002158615714387322
aF-0.0021396047589882037
aF-0.0021216459688472153
aF-0.002104408648190745
aF-0.002087466699871892
aF-0.0020703133229042683
aF-0.0020523792998004783
aF-0.0020330548539984165
aF-0.002011714025198953
aF-0.001987739251067857
aF-0.0019605430100049204
aF-0.0019295837463775293
aF-0.0018943751468124257
aF-0.0018544902504664957
aF-0.0018095633892802907
aF-0.0017592930667135365
aF-0.0017034482864335208
aF-0.0016418801471802624
aF-0.0015745396573301413
aF-0.001501501568551251
aF-0.0014229927038293517
aF-0.0013394218376302641
aF-0.0012514068177402267
aF-0.001159793861412482
aF-0.0010656645030943713
aF-0.0009703274629242457
aF-0.0008752947557427493
aF-0.0007822428608151464
aF-0.0006929608760185983
aF-0.0006092886525146931
aF-0.0005330487681777795
aF-0.00046597650549059627
aF-0.0004096518517984133
aF-0.00036543743295172344
aF-0.00033442635438191647
aF-0.000317403441104061
aF-0.00031482166017364303
aF-0.0003267930557813535
aF-0.00035309166402655004
aF-0.00039316554699765844
aF-0.0004461560696411192
aF-0.0005109237100781672
aF-0.0005860799976442875
aF-0.0006700244042440945
aF-0.000760983785347045
aF-0.0008570513669165602
aF-0.0009562232937344724
aF-0.0010564330778174947
aF-0.0011555859118250692
aF-0.0012515941417705872
aF-0.001342413114869588
aF-0.0014260753035390903
aF-0.001500720862923466
aF-0.0015646237221935055
aF-0.0016162130352833262
aF-0.001654090279173715
aF-0.00167704272523057
aF-0.0016840545152008895
aF-0.0016743172764908355
aF-0.0016472428234306825
aF-0.0016024798947460743
aF-0.0015399345775204785
aF-0.001459791476080608
aF-0.0013625315009419441
aF-0.0012489424776387717
aF-0.00112011984220163
aF-0.000977456170610639
aF-0.0008226201485137338
aF-0.0006575274731778759
aF-0.00048430729746787933
aF-0.0003052673714785232
aF-0.00012285901164069425
aF6.035935892425873e-05
aF0.00024176242378610231
aF0.0004187032843976554
aF0.00058856290395107
aF0.0007488003210016515
aF0.0008969988260556379
aF0.0010309037995723021
aF0.0011484505962739758
aF0.001247784161046952
aF0.0013272738562360503
aF0.001385526768532625
aF0.0014214014982516616
aF0.0014340229582711964
aF0.001422797409390205
aF0.0013874262664287586
aF0.0013279174315835797
aF0.0012445935564442687
aF0.0011380966657555025
aF0.001009387789649228
aF0.0008597397338920268
aF0.000690721777526426
aF0.0005041765281350193
aF0.0003021904718310222
aF8.706042779925808e-05
aF-0.00013874199242741418
aF-0.00037260655988621794
aF-0.0006118207442039003
aF-0.0008536062480791417
aF-0.0010951559950100245
aF-0.0013336714879852048
aF-0.001566399728243798
aF-0.001790668317290797
aF-0.0020039176801681423
aF-0.0022037304282336487
aF-0.002387858774106479
aF-0.0025542509308846177
aF-0.0027010767089415692
aF-0.0028267516337097892
aF-0.0029299584126904928
aF-0.0030096648443119272
aF-0.0030651382327382833
aF-0.0030959574807134078
aF-0.003102024494460371
aF-0.0030835758785002746
aF-0.0030411942157045186
aF-0.00297581624030497
aF-0.0028887341464043995
aF-0.002781586926578859
aF-0.0026563404048347513
aF-0.0025152562466450685
aF-0.0023608512130951515
aF-0.002195848599716843
aF-0.0020231243168110295
aF-0.0018456500558957853
aF-0.001666435207963374
aF-0.00148846836912565
aF-0.0013146595382687214
aF-0.0011477853885496808
aF-0.0009904407145076987
aF-0.0008449981798770949
aF-0.0007135763938294061
aF-0.0005980145962946776
aF-0.0004998518080321856
aF-0.00042030907491252606
aF-0.000360274485056429
aF-0.00032029122096599247
aF-0.00030054919955921144
aF-0.0003008812983229314
aF-0.00032076547284329955
aF-0.00035933371533057037
aF-0.0004153880473649074
aF-0.0004874230947985708
aF-0.0005736541804129537
aF-0.0006720492686144019
aF-0.0007803630846901452
aF-0.0008961724879447124
aF-0.001016912929009147
aF-0.0011399161293295086
aF-0.0012624495890237912
aF-0.0013817593164296906
aF-0.0014951171969024453
aF-0.0015998731558728495
aF-0.0016935108432783205
aF-0.0017737048956186373
aF-0.0018383773906228778
aF-0.001885750447643043
aF-0.0019143915743350518
aF-0.0019232486220620453
aF-0.001911671750547091
aF-0.0018794205101542092
aF-0.0018266552662641034
aF-0.0017539137426404
aF-0.0016620751953934235
aF-0.0015523163520287915
aF-0.0014260644386235803
aF-0.0012849528506899061
aF-0.001130783696678248
aF-0.0009654985626281404
aF-0.0007911556289442444
aF-0.0006099095046032429
aF-0.0004239905411880685
aF-0.00023568192939712925
aF-4.7294159038120006e-05
aF0.00013886282989816916
aF0.0003205087351054218
aF0.000495421445351836
aF0.0006614632509502231
aF0.0008166035504895163
aF0.0009589375704229916
aF0.001086701162049657
aF0.0011982824759816367
aF0.0012922319920299651
aF0.0013672723389328038
aF0.0014223085619453713
aF0.0014564386821020714
aF0.0014689639537710795
aF0.0014593979661598443
aF0.001427473515395747
aF0.0013731462280440639
aF0.0012965944320345534
aF0.0011982156980821035
aF0.0010786214949744613
aF0.0009386318994512836
aF0.0007792719114978068
aF0.0006017700526531008
aF0.00040755920723596997
aF0.0001982792118617874
aF-2.4219737851709253e-05
aF-0.00025787416835427345
aF-0.0005004062765973325
aF-0.0007493262101058387
aF-0.001001939845523447
aF-0.0012553651063135262
aF-0.001506559516018873
aF-0.0017523598231479714
aF-0.001989532559158291
aF-0.0022148335172226864
aF-0.002425074095470121
aF-0.002617192261330738
aF-0.00278832511717299
aF-0.0029358792650501665
aF-0.0030575954700867228
aF-0.0031516056876264268
aF-0.003216482159003948
aF-0.003251278905276542
aF-0.0032555656558539863
aF-0.003229453662757405
aF-0.0031736124377668945
aF-0.0030892765858196104
aF-0.0029782425552693286
aF-0.0028428553561502187
aF-0.002685984200674645
aF-0.0025109843109727484
aF-0.002321641762396209
aF-0.00212210001096946
aF-0.0019167694884489755
aF-0.0017102237489157244
aF-0.0015070866448184427
aF-0.0013119152655876353
aF-0.0011290832236389408
aF-0.0009626683847418094
aF-0.0008163484149871439
aF-0.0006933069288773112
aF-0.000596152881774418
aF-0.0005268558838776447
aF-0.00048669975717818603
aF-0.00047625581908528926
aF-0.0004953763592049185
aF-0.0005432076352629051
aF-0.000618220353646903
aF-0.000718254356032673
aF-0.0008405738605021535
aF-0.00098193057148338
aF-0.001138633845171511
aF-0.0013066287592482326
aF-0.0014815834513907567
aF-0.0016589862038353686
aF-0.0018342507440810205
aF-0.0020028258294865512
aF-0.002160303514488264
aF-0.0023025204831778096
aF-0.0024256483992469223
aF-0.002526271445453562
aF-0.0026014510348323287
aF-0.002648778262665096
aF-0.0026664138072682113
aF-0.002653113652694298
aF-0.002608238839079721
aF-0.002531748916570642
aF-0.002424180701235861
aF-0.0022866151083153247
aF-0.0021206350788768352
aF-0.0019282772115141692
aF-0.001711979107748265
aF-0.0014745241709054184
aF-0.0012189857017728485
aF-0.0009486720746534433
aF-0.000667074296777728
aF-0.0003778167047979743
aF-8.461119570829433e-05
aF0.00020878497339169616
aF0.0004986082327049175
aF0.0007811252559075533
aF0.0010526677072609319
aF0.0013096660827463609
aF0.0015486840859458505
aF0.0017664554147302758
aF0.0019599248452466353
aF0.0021262950601514305
aF0.0022630796415411
aF0.00236816074944578
aF0.0024398474203958446
aF0.002476928381931952
aF0.0024787133901810984
aF0.0024450594935934216
aF0.0023763815160971064
aF0.002273647719996046
aF0.0021383620724972456
aF0.001972534754192626
aF0.001778642731404325
aF0.0015595817824535679
aF0.0013186103625028264
aF0.001059285164220309
aF0.0007853887892464485
aF0.0005008510240549143
aF0.00020966612728422375
aF-8.419084995339687e-05
aF-0.0003768454251352713
aF-0.0006645997155223487
aF-0.0009440009807756276
aF-0.001211901692299064
aF-0.001465510998418403
aF-0.0017024372303368737
aF-0.0019207198930246408
aF-0.002118848612411832
aF-0.0022957667938904784
aF-0.0024508592504817227
aF-0.002583925123326219
aF-0.002695139228350368
aF-0.0027850058161878505
aF-0.002854308589886369
aF-0.002904060333597966
aF-0.002935455171002079
aF-0.0029498261418036695
aF-0.002948609946922762
aF-0.0029333191281021385
aF-0.002905520074621001
aF-0.0028668140080298785
aF-0.0028188180274121306
aF-0.0027631440772319786
aF-0.002701374746455562
aF-0.0026350360546457947
aF-0.0025655687545876505
aF-0.0024943003202014626
aF-0.0024224189950741055
aF-0.0023509499996640887
aF-0.002280734037663161
aF-0.0022124098694972704
aF-0.0021464042345308485
aF-0.0020829322989359125
aF-0.0020220102152501995
aF-0.00196347929978969
aF-0.001907039564299784
aF-0.0018522891784235383
aF-0.0017987657367495053
aF-0.001745984886910464
aF-0.0016934724012925718
aF-0.0016407873809319731
aF-0.0015875362105578232
aF-0.001533378177819534
aF-0.0014780242316871526
aF-0.001421230709381906
aF-0.0013627902124047375
aF-0.0013025217591099082
aF-0.001240261694120313
aF-0.00117585622238651
aF-0.0011091563368411576
aF-0.0010400157686384518
aF-0.0009682919742980678
aF-0.0008938498778266542
aF-0.0008165687557182316
aF-0.0007363532311363916
aF-0.0006531483480145464
aF-0.0005669564889619976
aF-0.00047785243040739843
aF-0.00038599330947390473
aF-0.0002916221308617672
aF-0.00019506551733309392
aF-9.672806776476453e-05
aF2.913610552724253e-06
aF0.00010331504253096715
aF0.0002038663675516978
aF0.000303895396844137
aF0.00040267350417269826
aF0.0004994248182213797
aF0.0005933376918674569
aF0.0006835775846193732
aF0.0007693014881860204
aF0.0008496744239757752
aF0.0009238880320726218
aF0.0009911802974912698
aF0.0010508544272032003
aF0.0011022943850537115
aF0.0011449752394279372
aF0.0011784680292928806
aF0.0012024402278890116
aF0.0012166533562096586
aF0.001220959045284454
aF0.0012152943273041022
aF0.0011996763383134584
aF0.001174196045278401
aF0.001139010244140814
aF0.001094330885559258
aF0.0010404107057375958
aF0.0009775245090572421
aF0.0009059465906764267
aF0.0008259263109203849
aF0.0007376649265415982
aF0.0006412970052778814
aF0.0005368792692535839
aF0.00042438900328708063
aF0.00030373359860361425
aF0.00017477233928461197
aF3.73507014580496e-05
aF-0.00010865417769295655
aF-0.0002632803124678043
aF-0.0004264252034682053
aF-0.0005977937495619819
aF-0.0007768554068335202
aF-0.0009628147554489626
aF-0.0011545974146118718
aF-0.0013508510821393566
aF-0.0015499601329106388
aF-0.0017500719216134767
aF-0.001949133223847981
aF-0.002144935450955956
aF-0.0023351671689531514
aF-0.002517472173704535
aF-0.0026895110759843346
aF-0.002849024219655241
aF-0.0029938939115126363
aF-0.0031222043071002328
aF-0.0032322977555319515
aF-0.003322826673064273
aF-0.0033927995427804683
aF-0.0034416182990900006
aF-0.0034691030029296572
aF-0.0034754995088794255
aF-0.003461467150672259
aF-0.0034280458218598326
aF-0.0033766044681704617
aF-0.00330877531573966
aF-0.0032263797439773625
aF-0.003131352533980219
aF-0.0030256711457704367
aF-0.0029112952074775034
aF-0.0027901187105586773
aF-0.0026639348016609444
aF-0.002534411472445509
aF-0.002403075537479031
aF-0.0022713017256319203
aF-0.0021403039733884953
aF-0.0020111273697947427
aF-0.0018846409400045793
aF-0.0017615324493742096
aF-0.0016423061685573212
aF-0.001527283688597822
aF-0.0014166075602455894
aF-0.0013102481170275725
aF-0.001208014494359515
aF-0.0011095705841925802
aF-0.0010144554802463586
aF-0.0009221068436452033
aF-0.0008318853516773736
aF-0.0007430989143804755
aF-0.0006550262550913864
aF-0.0005669405040329578
aF-0.00047813420900610047
aF-0.0003879470918741751
aF-0.0002957970106261654
aF-0.00020121337756515674
aF-0.00010387107127776243
aF-3.6220323024816207e-06
aF9.947831816846567e-05
aF0.00020515197555803677
aF0.0003128877519137217
aF0.0004219397587043823
aF0.0005313355954590703
aF0.0006398953012483324
aF0.0007462619554871995
aF0.0008489432163880028
aF0.0009463607010180525
aF0.0010369025683600213
aF0.001118974807087663
aF0.0011910481258916327
aF0.001251699188871971
aF0.001299646513419105
aF0.0013337820394024465
aF0.0013531990420620908
aF0.001357216209763043
aF0.0013453969411914343
aF0.0013175624552079215
aF0.0012737973048159998
aF0.001214446548385437
aF0.0011401048316652099
aF0.0010515981459456505
aF0.0009499588094039416
aF0.0008363941564950076
aF0.0007122504433161559
aF0.0005789751351543081
aF0.00043808155025398875
aF0.0002911191063643046
aF0.00013965085657846444
aF-1.476162975347561e-05
aF-0.00017056748874194478
aF-0.0003262323199284947
aF-0.00048024278694731035
aF-0.000631111139692331
aF-0.0007773791925287848
aF-0.0009176205689314442
aF-0.0010504408654639953
aF-0.0011744772594067569
aF-0.0012884004692043842
aF-0.0013909218808200812
aF-0.0014808072084172058
aF-0.001556895969486108
aF-0.0016181243478780125
aF-0.0016635487698394866
aF-0.0016923687623765606
aF-0.0017039489450516928
aF-0.0016978399876742517
aF-0.0016737975770435818
aF-0.0016317983950351735
aF-0.0015720530041716608
aF-0.0014950159991106932
aF-0.0014013929826223648
aF-0.0012921428747493067
aF-0.001168474340887574
aF-0.001031836675780657
aF-0.0008839066495181088
aF-0.0007265725894000397
aF-0.0005619159039858109
aF-0.0003921892244457176
aF-0.0002197897530016251
aF-4.722652930864342e-05
aF0.0001229189466131647
aF0.00028803860416146544
aF0.0004455497315431422
aF0.000592951882560324
aF0.0007278863672019387
aF0.0008481946636796692
aF0.0009519721901324112
aF0.001037615314405658
aF0.0011038609082209677
aF0.001149818169248323
aF0.001174991962407206
aF0.0011792962006927628
aF0.00116305539046009
aF0.0011269929868350178
aF0.0010722069200442422
aF0.0010001347424749064
aF0.0009125116989939831
aF0.0008113241282011322
aF0.0006987593522058505
aF0.0005771531111129578
aF0.0004489364638460533
aF0.00031658461255098846
aF0.0001825696014046953
aF4.931778614947293e-05
aF-8.082780735662057e-05
aF-0.00020564056800659384
aF-0.0003230397913217708
aF-0.000431118250338593
aF-0.00052816946718697
aF-0.0006127151431166827
aF-0.0006835316959784857
aF-0.0007396739958151178
aF-0.0007804943396451744
aF-0.0008056550638184172
aF-0.0008151338128095276
aF-0.0008092213579767805
aF-0.0007885126933210877
aF-0.0007538926438979988
aF-0.0007065173631735063
aF-0.0006477927948210171
aF-0.0005793504299632233
aF-0.0005030199529764579
aF-0.00042079827728288253
aF-0.0003348151499899197
aF-0.00024729628512581726
aF-0.00016052500003857723
aF-7.680258345207645e-05
aF1.5929161686313873e-06
aF7.244958243091049e-05
aF0.00013366575529435412
aF0.00018329426164242287
aF0.00021958461966247597
aF0.00024102026343678751
aF0.00024634809273547405
aF0.00023459889935914142
aF0.0002050986374195435
aF0.00015747171753536558
aF9.163849153158806e-05
aF7.809525817163471e-06
aF-9.352117593656492e-05
aF-0.00021158283437861889
aF-0.00034533424488651003
aF-0.0004934703145410122
aF-0.0006544294891621175
aF-0.0008264023238639764
aF-0.0010073410324007311
aF-0.0011949704702859955
aF-0.0013868023290958143
aF-0.001580155022830312
aF-0.0017721812738357475
aF-0.0019599041472799675
aF-0.0021402608409408085
aF-0.002310152623346968
aF-0.0024664994315840394
aF-0.0026062983770366714
aF-0.002726685740142359
aF-0.002825001542198009
aF-0.0028988550924822737
aF-0.002946189804418952
aF-0.002965345942161343
aF-0.002955119913329833
aF-0.0029148177114320852
aF-0.0028442986574662306
aF-0.0027440048977130367
aF-0.0026149730162188106
aF-0.0024588263798973574
aF-0.0022777493685416494
aF-0.0020744463974162524
aF-0.0018520892546514697
aF-0.001614255970448273
aF-0.0013648635463445764
aF-0.0011080957847886947
aF-0.0008483268390948817
aF-0.000590041468197443
aF-0.0003377537033446532
aF-9.592534836809787e-05
aF0.00013111565473839228
aF0.00033925782485739363
aF0.0005246896803627659
aF0.0006839823056187176
aF0.0008141675400662607
aF0.0009128079833537132
aF0.000978055529071117
aF0.0010086960578645986
aF0.0010041788461961694
aF0.0009646299986933393
aF0.0008908495131157811
aF0.0007842913208856497
aF0.0006470256342414467
aF0.0004816843616670116
aF0.0002913929694830509
aF7.96941254593362e-05
aF-0.0001495316326944286
aF-0.0003921447493459487
aF-0.0006438236984704112
aF-0.0009001403202191246
aF-0.0011566340728727039
aF-0.0014088858930115223
aF-0.00165259228873506
aF-0.001883639936398932
aF-0.0020981800133974015
aF-0.0022926998351939986
aF-0.0024640879074140564
aF-0.002609688177159908
aF-0.002727340244533645
aF-0.0028154040138791575
aF-0.002872769019823886
aF-0.0028988500859988167
aF-0.0028935720007315486
aF-0.00285734636191297
aF-0.0027910433512815538
aF-0.0026959600061140306
aF-0.002573785218461956
aF-0.0024265609737969666
aF-0.002256639431614063
aF-0.0020666358796047174
aF-0.0018593778637941425
aF-0.0016378508555868073
aF-0.0014051408356463317
aF-0.0011643743454267871
aF-0.0009186571088608054
aF-0.0006710131831997428
aF-0.0004243272340116145
aF-0.00018129268325849657
aF5.563150724885356e-05
aF0.00028425266374262074
aF0.0005026627392432454
aF0.0007092428370700898
aF0.0009026557676310439
aF0.0010818295971778164
aF0.001245934616142163
aF0.0013943550051554732
aF0.0015266561501326215
aF0.0016425493469114255
aF0.001741856530149144
aF0.0018244776586521486
aF0.0018903626929200816
aF0.0019394895242539928
aF0.001971848767207445
aF0.0019874355727517922
aF0.001986247988753499
aF0.0019682915722983997
aF0.0019335905077618705
aF0.0018822054554691583
aF0.0018142575096084807
aF0.0017299562448497504
aF0.0016296283439114986
aF0.0015137425859883312
aF0.0013829276080627772
aF0.0012379804207072384
aF0.0010798654792587863
aF0.0009097057869642688
aF0.0007287686582306096
aF0.0005384491915571666
aF0.0003402544456301161
aF0.00013579098856480163
aF-7.324225261299167e-05
aF-0.000285055198037703
aF-0.0004977628722192171
aF-0.0007093792888534753
aF-0.0009178126161461807
aF-0.0011208656835408222
aF-0.0013162457003734027
aF-0.0015015860718357293
aF-0.0016744810707870956
aF-0.0018325313635313434
aF-0.0019733964377643166
aF-0.0020948496453537233
aF-0.0021948322255794716
aF-0.002271503522351804
aF-0.0023232855981221946
aF-0.0023489015494417417
aF-0.0023474076053903456
aF-0.0023182193213949842
aF-0.0022611321059642585
aF-0.0021763361422469352
aF-0.002064425559573204
aF-0.0019264016722290354
aF-0.0017636703512224044
aF-0.0015780337691745287
aF-0.0013716763582146652
aF-0.0011471440800350891
aF-0.0009073160149737855
aF-0.0006553683106388362
aF-0.0003947319827665567
aF-0.00012904713683686817
aF0.00013788314917957586
aF0.00040213592740773776
aF0.0006597064353158273
aF0.0009065420596266974
aF0.0011385762608218239
aF0.0013517676695274034
aF0.0015421483766199172
aF0.001705883185601064
aF0.0018393395507552799
aF0.001939166348111322
aF0.0020023783677682702
aF0.0020264425785646205
aF0.0020093618414762033
aF0.0019497516356050731
aF0.001846905643227908
aF0.0017008470564953066
aF0.0015123637686702386
aF0.001283026303479769
aF0.0010151875155841137
aF0.0007119635695883166
aF0.0003771964390837393
aF1.5398359001709203e-05
aF-0.0003683217776769958
aF-0.0007683500432841835
aF-0.0011786754345524436
aF-0.0015930097665210479
aF-0.002004913418708826
aF-0.002407921544742347
aF-0.002795667409565891
aF-0.003162001119800848
aF-0.0035011027673861614
aF-0.003807589505034177
aF-0.004076616336804115
aF-0.004303969999773426
aF-0.004486154225972405
aF-0.004620463338731745
aF-0.004705040186432793
aF-0.004738914629426558
aF-0.004722020385473334
aF-0.004655189925433913
aF-0.004540127891654078
aF-0.00437936321785284
aF-0.004176180138546684
aF-0.003934529491318546
aF-0.003658923637921667
aF-0.003354319857227575
aF-0.0030259974456594203
aF-0.0026794329333564727
aF-0.0023201764931257535
aF-0.0019537318530577896
aF-0.001585442240499737
aF-0.0012203853703055627
aF-0.0008632802092273697
aF-0.0005184071205544778
aF-0.0001895420466262653
aF0.00012009465286713085
aF0.0004078738956964115
aF0.0006717778947996374
aF0.000910405339610662
aF0.001122962737795136
aF0.001309241848866785
aF0.001469582169382816
aF0.0016048179081360134
aF0.0017162107413453383
aF0.0018053715858881354
aF0.001874175464166582
aF0.0019246732617958448
aF0.001959003938348827
aF0.0019793111860706173
aF0.001987668658744588
aF0.0019860164829858954
aF0.001976109317451589
aF0.0019594743839943143
aF0.0019373773932730477
aF0.001910794731560749
aF0.0018803913443346146
aF0.001846505267284071
aF0.0018091410394614502
aF0.0017679745746111762
aF0.0017223715206356942
aF0.0016714201822572371
aF0.0016139789013212636
aF0.0015487364091780293
aF0.0014742823945718764
aF0.0013891846999972753
aF0.0012920691639652152
aF0.0011816982531899587
aF0.0010570455644971764
aF0.0009173645277991097
aF0.0007622499716486356
aF0.0005916904554631377
aF0.0004061087730717415
aF0.00020638854833795588
aF-6.114486447380478e-06
aF-0.00022957785974370796
aF-0.000461735613734734
aF-0.0006999197760866867
aF-0.0009411189364330584
aF-0.0011820516230783631
aF-0.0014192514627977867
aF-0.001649160455855218
aF-0.0018682259860121897
aF-0.0020729968024359347
aF-0.0022602133065105436
aF-0.002426887905039346
aF-0.0025703721457772046
aF-0.0026884089511668902
aF-0.002779169861780223
aF-0.0028412782543926133
aF-0.0028738204001922574
aF-0.002876347211649331
aF-0.002848869847742308
aF-0.0027918513146935153
aF-0.002706194275733657
aF-0.0025932238430402266
aF-0.002454664187823398
aF-0.00229260895872481
aF-0.0021094865027015664
aF-0.001908021242841567
aF-0.0016911926628596
aF-0.0014621931621645583
aF-0.0012243849830941948
aF-0.0009812546811559292
aF-0.0007363626329413126
aF-0.0004932858082842556
aF-0.00025555378860568347
aF-2.6579555387336304e-05
aF0.000190412503321027
aF0.0003924582158332322
aF0.0005769208875099407
aF0.0007415495651388581
aF0.0008845238929600001
aF0.001004482265339912
aF0.0011005315023685596
aF0.0011722382316507306
aF0.0012196048878903754
aF0.001243036016035137
aF0.0012433015810140084
aF0.0012215022593393982
aF0.0011790383747198024
aF0.0011175814118393058
aF0.0010390459530573834
aF0.0009455598670034821
aF0.0008394307354703675
aF0.0007231068317757645
aF0.0005991321583182483
aF0.00047009719657684415
aF0.00033858893719095745
aF0.0002071440986443457
aF7.820811235843101e-05
aF-4.589952556526169e-05
aF-0.0001630145395577454
aF-0.00027115361019720835
aF-0.0003685383925011652
aF-0.0004536190436017178
aF-0.0005250975070782174
aF-0.0005819497603699395
aF-0.0006234455797514415
aF-0.000649164569689086
aF-0.0006590080406168877
aF-0.0006532067799044777
aF-0.0006323241480142523
aF-0.0005972528572261212
aF-0.0005492035460721694
aF-0.0004896844126657025
aF-0.0004204728320369225
aF-0.000343580488012831
aF-0.00026121270046956417
aF-0.00017572182198259364
aF-8.95553745266616e-05
aF-5.201531832046928e-06
aF7.486428526765412e-05
aF0.00014822858713651747
aF0.00021258338163351108
aF0.00026576426617593534
aF0.00030578400829296476
aF0.00033086291124986275
aF0.0003394573743902253
aF0.00033028810807634923
aF0.0003023694207946622
aF0.00025504049437446026
aF0.00018799835472146844
aF0.00010133086485522974
aF-4.452630573725477e-06
aF-0.00012839533888877745
aF-0.0002690739530361048
aF-0.0004245888159217971
aF-0.0005925656021194476
aF-0.0007701705022812507
aF-0.0009541409734470712
aF-0.0011408349418796757
aF-0.0013263017952183655
aF-0.00150637684754694
aF-0.00167679713508626
aF-0.0018333322974193242
aF-0.001971921775939424
aF-0.0020888091499778327
aF-0.0021806657375820246
aF-0.0022446978180537657
aF-0.0022787340136176224
aF-0.0022812908734620853
aF-0.002251615722360554
aF-0.00218970696988749
aF-0.0020963133804335634
aF-0.0019729145176544537
aF-0.0018216841186151382
aF-0.0016454371410879506
aF-0.0014475610413389505
aF-0.0012319331651473836
aF-0.001002828099392641
aF-0.0007648197001683899
aF-0.0005226814541718067
aF-0.000281286781980607
aF-4.5509347220706107e-05
aF0.00017987706976201488
aF0.00039029921872630154
aF0.0005814844422781843
aF0.0007495572212449278
aF0.0008911277093390781
aF0.0010033674808501217
aF0.0010840688316156564
aF0.0011316856088433441
aF0.0011453546555904232
aF0.0011248973626125107
aF0.0010708012089345085
aF0.0009841820104730915
aF0.0008667287166967222
aF0.0007206338183906364
aF0.0005485136366842764
aF0.00035332360240468885
aF0.00013827395908184764
aF-9.324873557866376e-05
aF-0.00033774974488970535
aF-0.0005916815642433253
aF-0.0008514874716829108
aF-0.0011136367223247797
aF-0.0013746554314499088
aF-0.0016311556345160404
aF-0.0018798630061914367
aF-0.002117642964102471
aF-0.0023415255146613722
aF-0.0025487301521676005
aF-0.002736692492444283
aF-0.0029030938210297206
aF-0.003045893558310767
aF-0.0031633633812879836
aF-0.003254120933285994
aF-0.0033171607033752647
aF-0.00335187949231948
aF-0.0033580938632664426
aF-0.003336047229763132
aF-0.0032864047710910002
aF-0.003210235176629144
aF-0.003108979263839292
atp3
a.