(lp0
((lp1
F313.14919213017293
aF313.1486330423991
aF313.149010772171
aF313.1519555555277
aF313.1511945375966
aF313.1509478125531
aF313.15129185560824
aF313.15201449700623
aF313.15016044728503
aF313.15083832818317
aF313.15027183762385
aF313.1495013337676
aF313.1503756724539
aF313.1491930956784
aF313.1492730871995
aF313.15175583473325
aF313.1497533859259
aF313.15028510815495
aF313.1488767345156
aF313.14876536819315
aF313.14967937697895
aF313.1501300434207
aF313.1473395913794
aF313.1484935047227
aF313.1463595150996
aF313.14747917134724
aF313.1457716337986
aF313.1469771193043
aF313.1442494456133
aF313.1443772313311
aF313.14306115607087
aF313.143032148973
aF313.13974919574804
aF313.1379590947152
aF313.1387908495089
aF313.13749838790966
aF313.1368814532609
aF313.1347179022891
aF313.13187596953355
aF313.132553315767
aF313.1316306329887
aF313.12952658123606
aF313.12870518747656
aF313.12780834148725
aF313.1253413725775
aF313.12327328832674
aF313.12326550517713
aF313.11915805344955
aF313.11917515169193
aF313.1181278687667
aF313.116355204585
aF313.1117438309591
aF313.1122797797623
aF313.1099000817292
aF313.10901735240566
aF313.1071605046625
aF313.10433976316216
aF313.1025168154065
aF313.10090999750145
aF313.10054724155395
aF313.09784497935925
aF313.09594998832006
aF313.09399225649315
aF313.089974217148
aF313.0891408903299
aF313.08782877164526
aF313.0864996943785
aF313.08415294214785
aF313.0832482465808
aF313.0805085352827
aF313.07860877288675
aF313.0753355466137
aF313.073929816635
aF313.07139109219054
aF313.07081667031537
aF313.07133576874503
aF313.068025228557
aF313.0654275777405
aF313.06293907251626
aF313.06061420141214
aF313.05913410224656
aF313.0565468788996
aF313.05289256911396
aF313.05354733243195
aF313.05011133762764
aF313.04953789006436
aF313.0468955558
aF313.04431189723385
aF313.0424003491295
aF313.04322027970954
aF313.0398835356325
aF313.03916148083766
aF313.0349796973514
aF313.0347797021223
aF313.03292948309434
aF313.03173643671295
aF313.0294696282668
aF313.0249012221248
aF313.0216588197307
aF313.02407854268347
aF313.0208447019244
aF313.0210378695479
aF313.01738191687656
aF313.01515498133676
aF313.01306955582106
aF313.01236829034957
aF313.0091213663683
aF313.00732831254066
aF313.00768545349774
aF313.00574654693736
aF313.0029353606041
aF313.00112460182487
aF312.99959942152157
aF312.99710321027595
aF312.9960526840977
aF312.99549170683633
aF312.99240626631223
aF312.99169101768183
aF312.9894162436026
aF312.9865409811398
aF312.98707791784005
aF312.9832421135371
aF312.9850762661778
aF312.97948508509785
aF312.97887701596215
aF312.97668388225225
aF312.9744558042697
aF312.9744310866126
aF312.97277872655013
aF312.97070073351887
aF312.9709522249811
aF312.9672547665791
aF312.965841964257
aF312.9655552051699
aF312.9624182159773
aF312.9618036225267
aF312.9601647172051
aF312.9559414514984
aF312.95746831359594
aF312.9551921237758
aF312.9518482856284
aF312.9534607900278
aF312.95113240996494
aF312.9522136314761
aF312.94751073465835
aF312.9472020443102
aF312.9462824936619
aF312.94405823205824
aF312.94033135699254
aF312.9411606274353
aF312.93947451622057
aF312.9371648158301
aF312.9349729943044
aF312.93305856669434
aF312.93361750574815
aF312.931122115497
aF312.930389865658
aF312.9275787003116
aF312.92708953624003
aF312.9247632317627
aF312.9237168627043
aF312.9229757744946
aF312.9222181374048
aF312.92064519364044
aF312.91927190679263
aF312.9164031869637
aF312.91643964843865
aF312.91435496178053
aF312.91280838175896
aF312.9126050426998
aF312.9138208788634
aF312.9088066457122
aF312.90730030985605
aF312.906388738537
aF312.90561904244396
aF312.90283012600634
aF312.90224587744035
aF312.90305043497716
aF312.9001008555483
aF312.8981371636616
aF312.89756251228107
aF312.8982056707043
aF312.897292554912
aF312.8965851876757
aF312.8927455056408
aF312.89091528429327
aF312.88970023416897
aF312.88949341198406
aF312.8891239098277
aF312.8879132336436
aF312.88259498334133
aF312.8843227641425
aF312.8844611472952
aF312.8819320127827
aF312.8802684394694
aF312.88073446467274
aF312.8778687396166
aF312.875985520474
aF312.87703731409357
aF312.87541240087154
aF312.8740781071499
aF312.8729813969733
aF312.87079430856335
aF312.87235772380507
aF312.86837660612196
aF312.86733387985555
aF312.8674463327795
aF312.8656168969157
aF312.864057358878
aF312.86358873037614
aF312.8632944951082
aF312.860000367742
aF312.8603563368868
aF312.8593820015638
aF312.85795985200815
aF312.85617894274
aF312.8552408306183
aF312.85436887194277
aF312.8537491897693
aF312.85236544107323
aF312.852152420197
aF312.85092698789106
aF312.84876613513774
aF312.84856474563605
aF312.84531621457415
aF312.84569876625494
aF312.8455481344104
aF312.8462105957545
aF312.8436603662935
aF312.84213203541225
aF312.84115057769264
aF312.8411795748185
aF312.8423048109822
aF312.8388618833403
aF312.83746668844753
aF312.8351976836573
aF312.8358780165711
aF312.83580337633543
aF312.8356067755596
aF312.8331339660364
aF312.83054557339614
aF312.83008624718724
aF312.8297816617559
aF312.8286931225763
aF312.8280128202553
aF312.8283388318673
aF312.82593810271175
aF312.82538569908877
aF312.82455321983406
aF312.82334715445916
aF312.8226555798883
aF312.8220209575603
aF312.8204855697537
aF312.8198370545102
aF312.8175201184025
aF312.81628342213435
aF312.81770886211194
aF312.8152889226949
aF312.8136213766646
aF312.8141568709299
aF312.81367562479835
aF312.81331703139557
aF312.8129346699784
aF312.8104870969038
aF312.8100284529274
aF312.8085431027003
aF312.8073146669785
aF312.80774661733153
aF312.80617788476474
aF312.8042577441533
aF312.80517148095737
aF312.8042664273437
aF312.8016329694664
aF312.8010380225009
aF312.80203047404916
aF312.8013034468952
aF312.79958394156586
aF312.7987004083389
aF312.79588094378647
aF312.7978254471489
aF312.79492250990916
aF312.79421390842725
aF312.7930155340081
aF312.7935824638773
aF312.792374680808
aF312.7925515136258
aF312.7905568783994
aF312.7908317425886
aF312.78844292129884
aF312.78846173486875
aF312.78881215431323
aF312.78645745668484
aF312.7878076263813
aF312.7838305895733
aF312.78420752765567
aF312.78415356576636
aF312.78375489888793
aF312.78452772626594
aF312.781778559983
aF312.7824675053667
aF312.7809572791391
aF312.77949951817004
aF312.78000688276427
aF312.7788520302619
aF312.7773342852724
aF312.77794118747676
aF312.77519621502455
aF312.77623491194015
aF312.7755440428339
aF312.7731094306707
aF312.77115863668007
aF312.77166588942976
aF312.77196580929524
aF312.77036357696335
aF312.7706864340499
aF312.7687423573383
aF312.76880441138235
aF312.76603746810366
aF312.7664025862839
aF312.7678759390402
aF312.7651088320188
aF312.76571829315156
aF312.7651101211574
aF312.76353064018406
aF312.7626753169878
aF312.76303647749296
aF312.7617354532464
aF312.7624099848828
aF312.76034421214825
aF312.7580004818031
aF312.7583869369355
aF312.7582564215047
aF312.7561907171059
aF312.757601556649
aF312.7581092792694
aF312.7569948331936
aF312.7553505485996
aF312.75395937121914
aF312.7529544749361
aF312.7525870461128
aF312.7523983704965
aF312.7512925168789
aF312.75160124648517
aF312.75007836550384
aF312.751149733811
aF312.75044735746724
aF312.74634189261
aF312.7473095419813
aF312.74759210941136
aF312.74669312987606
aF312.74553222824744
aF312.7454845069959
aF312.7457864656657
aF312.7449255554462
aF312.74413706267796
aF312.74343868203357
aF312.743695240497
aF312.74062565102
aF312.74085153685655
aF312.73899588089733
aF312.7407103051011
aF312.7384798667045
aF312.73891548115887
aF312.73778070706487
aF312.7378113882749
aF312.7363982579751
aF312.73647877810924
aF312.7351181192643
aF312.7341692427143
aF312.7336554804161
aF312.7333450810603
aF312.7312488175834
aF312.73185724266654
aF312.73275391700196
aF312.73084672939694
aF312.73008953003614
aF312.7295536858685
aF312.72898977727107
aF312.73024263688427
aF312.728508255895
aF312.72803717934534
aF312.7271885161886
aF312.7264787620679
aF312.72665912684596
aF312.7247398698569
aF312.723856331853
aF312.7240512703426
aF312.7242189479923
aF312.7235211928774
aF312.72323701206346
aF312.72216330483644
aF312.71939770331915
aF312.7214596557611
aF312.72059552910423
aF312.7198756844272
aF312.7188714410308
aF312.7181068770278
aF312.7191495924005
aF312.71740983181576
aF312.7176254345333
aF312.7152154019694
aF312.7162757072545
aF312.7138177983392
aF312.7145170373606
aF312.7158969287265
aF312.71497361019146
aF312.71267997410087
aF312.71232245169483
aF312.71057834352615
aF312.7103746714654
aF312.71069405102287
aF312.7109480326668
aF312.7110197659768
aF312.71004781390945
aF312.7092798043061
aF312.70794882069373
aF312.7069913311305
aF312.7084859706442
aF312.7061452215847
aF312.70608405034073
aF312.70747601866236
aF312.70505411016376
aF312.7036294869292
aF312.7059590938119
aF312.70405876939105
aF312.7048224446275
aF312.70447968547876
aF312.7032910649278
aF312.7020246476356
aF312.7008601771443
aF312.70063557174205
aF312.6985931788373
aF312.69900361607637
aF312.69837261719107
aF312.69831111797424
aF312.69749293640064
aF312.69841228315494
aF312.6969100010831
aF312.69660838439364
aF312.6962048813084
aF312.69528783804316
aF312.6950856813488
aF312.69497874413196
aF312.69453866756135
aF312.6945667296331
aF312.69168961299613
aF312.69220860142417
aF312.69246879689564
aF312.6925901012667
aF312.69183606474365
aF312.6924055340458
aF312.69203448006624
aF312.6913678241364
aF312.6894143552897
aF312.68794728941833
aF312.68936765644685
aF312.6899428132495
aF312.6872146197704
aF312.6907221562721
aF312.688668475681
aF312.6849139342399
aF312.6858595833224
aF312.68621566986263
aF312.685958128473
aF312.6853913459308
aF312.68514386484594
aF312.6843586816814
aF312.684551063151
aF312.6822187504448
aF312.6824447072558
aF312.6826379927467
aF312.6819865499442
aF312.681274410525
aF312.67929897399796
aF312.67912660988037
aF312.6798971885271
aF312.6804760522632
aF312.68105932071245
aF312.67986814414184
aF312.67839329933605
aF312.6781488053529
aF312.6766238352581
aF312.67487427669766
aF312.6778831961037
aF312.6749663355576
aF312.67744737895697
aF312.6744143675869
aF312.67410035255654
aF312.6745821774142
aF312.67421834507974
aF312.67359638004586
aF312.6751795187994
aF312.67352598433865
aF312.6721317868195
aF312.672119801689
aF312.6710571621176
aF312.6710323762914
aF312.67054748455115
aF312.6707956116088
aF312.67092925606437
aF312.6699519638619
aF312.66813200344143
aF312.66730094048046
aF312.6698802372233
aF312.6681614734711
aF312.66657870201476
aF312.66660404166004
aF312.6670256018688
aF312.66676085108304
aF312.66579583440506
aF312.66723393173646
aF312.6643976913135
aF312.6645511490308
aF312.66533409881055
aF312.6648611640385
aF312.66155561044985
aF312.66388694795364
aF312.66255264540115
aF312.6639668264404
aF312.6614713663711
aF312.6620563075852
aF312.66088392954657
aF312.65977434045266
aF312.6589529621586
aF312.6603774777369
aF312.65891253754194
aF312.6583494693066
aF312.65903342931716
aF312.65821977503157
aF312.6563688943507
aF312.6567127862451
aF312.6566115585168
aF312.65757178729757
aF312.6555420827412
aF312.65663056932306
aF312.6542861900937
aF312.65439785431283
aF312.6546468887995
aF312.6531246164919
aF312.65404580481356
aF312.654460115272
aF312.65236443818236
aF312.65266983000595
aF312.65416585043454
aF312.6509380400194
aF312.6515511699197
aF312.6511826094101
aF312.6514785241617
aF312.65070883138
aF312.649579930624
aF312.65016514992465
aF312.649366853604
aF312.6497160030573
aF312.6464640297836
aF312.64972455473674
aF312.64572681583525
aF312.6479305057698
aF312.6486490048576
aF312.6474064131686
aF312.6488121552494
aF312.6489946109814
aF312.6475048588051
aF312.6466829668328
aF312.6453243847028
aF312.64562185966815
aF312.6456593334995
aF312.64493886636836
aF312.6443733697101
aF312.6440116511996
aF312.64411590166424
aF312.6444556861369
aF312.6407762704294
aF312.64201448099277
aF312.64198995740065
aF312.6405036890671
aF312.64025430186183
aF312.64132216237067
aF312.63884491280544
aF312.64158155002144
aF312.63845633479747
aF312.6414823212739
aF312.63733637884775
aF312.63882902348524
aF312.6392430760344
aF312.63907660386536
aF312.6395237186197
aF312.63619490504635
aF312.63593371595084
aF312.6373317914175
aF312.63711896025904
aF312.63794379344995
aF312.63597860719443
aF312.6367394916522
aF312.63362084940087
aF312.6319226245079
aF312.6329071573416
aF312.63546151884196
aF312.63451947777
aF312.6333741241129
aF312.6324535750394
aF312.6323675264198
aF312.6314893282474
aF312.6335740745504
aF312.63277614747335
aF312.6333007643039
aF312.63115619798566
aF312.6305511230531
aF312.6295122666683
aF312.62977563668505
aF312.6282837884555
aF312.6293138278064
aF312.6292919956516
aF312.6294427635096
aF312.63179058975214
aF312.6282888801024
aF312.62852719180165
aF312.62602261800276
aF312.62720724208185
aF312.62419641224295
aF312.6258920912407
aF312.62569763983157
aF312.62577477803046
aF312.62683684452594
aF312.6260178664898
aF312.6258345653737
aF312.6228635581372
aF312.6240360061856
aF312.62330895645357
aF312.623575367798
aF312.62342125619074
aF312.62551971460783
aF312.62553562322614
aF312.62238925029305
aF312.62250679652783
aF312.62192526302385
aF312.6201102520762
aF312.62313988651925
aF312.6198988113684
aF312.62159502633
aF312.62074451354465
aF312.62150857355766
aF312.6188207362114
aF312.6189743883482
aF312.6179301003977
aF312.6184795610639
aF312.61824865452235
aF312.61935922894776
aF312.6174767385523
aF312.61847340277643
aF312.6183881547045
aF312.61823834283024
aF312.61720744296133
aF312.6182492569182
aF312.6170079590285
aF312.6153152320353
aF312.61762084493756
aF312.61570435249536
aF312.6149256807782
aF312.61449353485
aF312.61236267597627
aF312.6156285153333
aF312.6139442867356
aF312.6119284084062
aF312.6150555391304
aF312.6142310547831
aF312.6141201775743
aF312.61197820721947
aF312.61173483383874
aF312.612858481334
aF312.6108686955472
aF312.61051501150797
aF312.6099827794406
aF312.6113173171614
aF312.6114849310915
aF312.6107861581271
aF312.60850804679103
aF312.6123911401926
aF312.610303964823
aF312.6065618437268
aF312.60749883832926
aF312.609655953563
aF312.6096770861839
aF312.6080512818287
aF312.60812692009773
aF312.6086508700296
aF312.60697834877095
aF312.60639947142397
aF312.6077343955079
aF312.6065065654871
aF312.60602430330573
aF312.60597742880526
aF312.60682429783657
aF312.60517408759404
aF312.6037276393404
aF312.6034999123946
aF312.6044075427689
aF312.60470900430687
aF312.60325201705615
aF312.60274223808494
aF312.6028745824056
aF312.6036257184388
aF312.6042141299536
aF312.60173351494785
aF312.60166781703833
aF312.60393974374523
aF312.60041045886646
aF312.6023247473293
aF312.5996022943901
aF312.60018535431965
aF312.6008478203185
aF312.59933089185574
aF312.59960282887687
aF312.6003637417472
aF312.59945822538003
aF312.5993551569578
aF312.6014534326578
aF312.5998823523785
aF312.599115523012
aF312.5984709789153
aF312.5999355965418
aF312.59815948443725
aF312.5978933196281
aF312.5969636421472
aF312.597847649526
aF312.59690423689585
aF312.59568982098017
aF312.5974136856187
aF312.5961219544627
aF312.5987876911079
aF312.5967773499672
aF312.594200060096
aF312.5948362310911
aF312.59562619945353
aF312.59446345149115
aF312.5951211572583
aF312.59409819525143
aF312.5940556916139
aF312.59352901719456
aF312.59401992152584
aF312.59252979943477
aF312.5929563070955
aF312.59253218508553
aF312.5903205829581
aF312.5922051947123
aF312.5939687988258
aF312.5916669430099
aF312.59095360200774
aF312.5917428709317
aF312.59179973346755
aF312.5909170420112
aF312.59065296157854
aF312.5897827823514
aF312.5901494595677
aF312.59039492229454
aF312.590407696773
aF312.58802226760656
aF312.58962790282044
aF312.58866000917135
aF312.5893945490394
aF312.58875117056783
aF312.58716303749554
aF312.58802413203927
aF312.5876417029015
aF312.5881742711233
aF312.58620187657255
aF312.5874304668039
aF312.5883493846954
aF312.58647786373075
aF312.58682442477647
aF312.5869472849317
aF312.58660773493455
aF312.5850124412402
aF312.5854356467324
aF312.5830021614426
aF312.5873352992666
aF312.58602741808824
aF312.58622869587845
aF312.5845349904532
aF312.58498593948195
aF312.58466480329884
aF312.5834773804729
aF312.58381196473124
aF312.5842404927226
aF312.5840789143179
aF312.58170230934076
aF312.5831540701657
aF312.58253061717727
aF312.58143879261564
aF312.5818292585419
aF312.5814246411108
aF312.58144898852623
aF312.580811033093
aF312.57928435653736
aF312.5826163822169
aF312.5805432504677
aF312.58146220730987
aF312.5824842624635
aF312.58039381500373
aF312.5785431510417
aF312.578066399842
aF312.578359173119
aF312.5785033856015
aF312.57627190802947
aF312.57767317307804
aF312.578631289175
aF312.5774340206126
aF312.57831800117987
aF312.57690770084554
aF312.57781877233805
aF312.578874039499
aF312.5762219656072
aF312.5769063579757
aF312.57725539700925
aF312.5759920945834
aF312.5756639122711
aF312.57664050060066
aF312.5763254005151
aF312.5753554145485
aF312.57546086118947
aF312.57356514874834
aF312.5745095245833
aF312.57373036603923
aF312.57427203250404
aF312.5734930824495
aF312.5740399809956
aF312.5741613693363
aF312.5750875422333
aF312.5730902202921
aF312.5729985273812
aF312.5710251062867
aF312.57199066149644
aF312.5722379459104
aF312.571825798233
aF312.57175945415673
aF312.57308515894914
aF312.5742727531085
aF312.5716033976124
aF312.57125687988486
aF312.5716829950957
aF312.5718984993018
aF312.5713052841573
aF312.5716051445664
aF312.5706081953196
aF312.5714845244295
aF312.5692558961753
aF312.5714908615377
aF312.5672301362039
aF312.5680568059054
aF312.5675417620777
aF312.56821909120185
aF312.5674602248759
aF312.5687466763464
aF312.5675544634386
aF312.5673494306555
aF312.565899438183
aF312.5676810475135
aF312.56803337628867
aF312.5664218513054
aF312.56688407306757
aF312.56652059388546
aF312.5661917884787
aF312.56905492414944
aF312.5659169559003
aF312.5655571438063
aF312.5658402708268
aF312.5659024476998
aF312.56421955018385
aF312.5665040924585
aF312.5653875578041
aF312.5653478062904
aF312.565887637495
aF312.5640720309612
aF312.5638233413714
aF312.5633456727399
aF312.5635584594494
aF312.56278270183816
aF312.56307975615823
aF312.5647599362227
aF312.5624134453805
aF312.5615983229194
aF312.5635471771784
aF312.56246911604336
aF312.56223359618355
aF312.55974236441364
aF312.56158801421583
aF312.55979803999173
aF312.5604807804627
aF312.5620718079371
aF312.56308400698185
aF312.56239476447985
aF312.5616121663939
aF312.56062571840937
aF312.5607905068537
aF312.5602510061478
aF312.55963187252445
aF312.55887737680393
aF312.55958430372885
aF312.5579312556249
aF312.56069553330894
aF312.5577625520422
aF312.558644168601
aF312.5572937693177
aF312.55883233006404
aF312.55994528012764
aF312.5601600997676
aF312.555184178596
aF312.55859063927227
aF312.5576788187568
aF312.55794224179266
aF312.5554481690928
aF312.5562826125693
aF312.5577859267787
aF312.55569442515775
aF312.55765980338964
aF312.5558999580541
aF312.5552289114022
aF312.5563741103343
aF312.5551270353991
aF312.55492157520786
aF312.5562224582786
aF312.55352371902984
aF312.55476940851156
aF312.55418550282775
aF312.5539631924114
aF312.5538822081789
aF312.55485849882905
aF312.5531434570756
aF312.55266244423
aF312.55385729362604
aF312.552142184149
aF312.5539519095672
aF312.55138456343104
aF312.55303061123766
aF312.5512167126389
aF312.5515820804244
aF312.5535009188715
aF312.5522570049133
aF312.5526575856004
aF312.551502283166
aF312.55178052655
aF312.5514758495386
aF312.55226982968173
aF312.55105629116434
aF312.5512500791594
aF312.5511530862733
aF312.55239384853877
aF312.5498493836906
aF312.55032757761944
aF312.5499383717246
aF312.54990600778393
aF312.5483312281987
aF312.55008903121154
aF312.55022240926024
aF312.5496851962031
aF312.55005623763867
aF312.5494652855779
aF312.5482526160212
aF312.5496530931029
aF312.54727927637356
aF312.5482096450665
aF312.54811250958267
aF312.54850339456675
aF312.5481126222839
aF312.5468807798444
aF312.5480201531488
aF312.5482382160465
aF312.5477883228118
aF312.5459677225493
aF312.5465046261603
aF312.5456230036174
aF312.5456414198968
aF312.54526473399517
aF312.5464222155565
aF312.54556186386196
aF312.5441263680979
aF312.5458344409501
aF312.5462062009713
aF312.5459595079109
aF312.5448758167599
aF312.5445990203189
aF312.54271071833404
aF312.54496118782873
aF312.5450606185845
aF312.5452905254994
aF312.542385701486
aF312.54194423218695
aF312.5423312438326
aF312.542619965463
aF312.5443044335631
aF312.543444155743
aF312.54372745102756
aF312.5430754646764
aF312.5421293161848
aF312.54252445789706
aF312.5419443827507
aF312.54322589667873
aF312.53982329484063
aF312.5421076115289
aF312.5419809119624
aF312.540792965959
aF312.54008822438453
aF312.54015695667533
aF312.5389846714865
aF312.5397277479797
aF312.54103626532344
aF312.5413476590231
aF312.5384438690527
aF312.5398131787632
aF312.5394221515379
aF312.5408445303251
aF312.5404411602429
aF312.53955309992784
aF312.54018643392163
aF312.53984992644104
aF312.5384275397616
aF312.53844446555416
aF312.53970749987525
aF312.5385971668729
aF312.5377314018476
aF312.53815533834955
aF312.53702662194075
aF312.5368378513699
aF312.53786488197
aF312.53966034913697
aF312.5359980647462
aF312.5364477529969
aF312.5378774632627
aF312.53423941549624
aF312.5375032245147
aF312.5367978343234
aF312.53645952598515
aF312.5372362947731
aF312.53528439813624
aF312.53642038121654
aF312.53581370744655
aF312.5351005123786
aF312.5328332006857
aF312.53657621472905
aF312.53454801145614
aF312.53557064440196
aF312.53681079564416
aF312.5344436587355
aF312.53419183503
aF312.53341087500894
aF312.5347134315557
aF312.5332468436806
aF312.5328016675987
aF312.5324146987888
aF312.53330263490193
aF312.5340948222437
aF312.5318529305049
aF312.5345230971615
aF312.53404724856836
aF312.53291984192805
aF312.531361019384
aF312.5328610973133
aF312.53218522859993
aF312.53111091460704
aF312.5338534611092
aF312.53192386711436
aF312.5313498410554
aF312.5301152577133
aF312.5313800305414
aF312.5315143496819
aF312.53207654495503
aF312.5297158010803
aF312.5309934787495
aF312.5302089084013
aF312.53093726575446
aF312.53166690861514
aF312.52952611198606
aF312.5313846910959
aF312.5304280792643
aF312.5282376779761
aF312.52945818215517
aF312.5297705093135
aF312.52927610076284
aF312.529648389976
aF312.5278066947036
aF312.5285903168962
aF312.52997794381025
aF312.5282817791802
aF312.5278906359532
aF312.52848966782614
aF312.527887336754
aF312.52869178312335
aF312.52828947030235
aF312.52696027051104
aF312.5276762455918
aF312.52520602516313
aF312.52745862609726
aF312.52702447711204
aF312.52713998798316
aF312.5284061052961
aF312.52839613042534
aF312.5269398498982
aF312.52523787983415
aF312.5271869578505
aF312.5249878740182
aF312.524975078218
aF312.5255823433373
aF312.52630646799054
aF312.526032345228
aF312.52527964607094
aF312.5248548876568
aF312.5255361757674
aF312.5249460087835
aF312.5248551169792
aF312.525408448397
aF312.52346460650347
aF312.5260713517575
aF312.5224659964871
aF312.5222620773307
aF312.52406293779876
aF312.5247201441826
aF312.5218125134671
aF312.5223732460812
aF312.5249251951842
aF312.52418652411944
aF312.5230347729185
aF312.5229531829437
aF312.52320430301125
aF312.5232388399963
aF312.5244704425758
aF312.52208131421395
aF312.5238617622599
aF312.52046362998254
aF312.52144235064435
aF312.5214308259205
aF312.52359453732043
aF312.52156960713387
aF312.52102727861995
aF312.5208318215135
aF312.5224597955031
aF312.5197474074579
aF312.51793884045196
aF312.5212734826319
aF312.5201482414259
aF312.521486858211
aF312.5203466478711
aF312.5193765777676
aF312.52001747001134
aF312.522398314307
aF312.5187325299371
aF312.51969345843935
aF312.51770806764847
aF312.52036039292517
aF312.51968796658446
aF312.517975360132
aF312.5192371139104
aF312.51942571877447
aF312.5210801415383
aF312.5181183062816
aF312.5169986465216
aF312.5190400612567
aF312.5179212175787
aF312.517904831957
aF312.5180244828549
aF312.5178764415998
aF312.5182984065826
aF312.5185953950277
aF312.5192288377934
aF312.5174823912484
aF312.51550050520257
aF312.51762758724266
aF312.5163303186441
aF312.5171227006367
aF312.5167802249496
aF312.5164748420823
aF312.51666284902865
aF312.5157842419263
aF312.51570940775446
aF312.51745275436025
aF312.51799788107644
aF312.51674873396934
aF312.5163204360926
aF312.5171444410733
aF312.5155195606659
aF312.51424426894147
aF312.5156848978622
aF312.5148813950701
aF312.51479955933223
aF312.51508025388813
aF312.5139191691115
aF312.5159957354674
aF312.51396214087555
aF312.5144303302912
aF312.5149466432044
aF312.5131319526351
aF312.51294661625724
aF312.5136198973996
aF312.51458891867816
aF312.51367164583917
aF312.5126566049324
aF312.5146923797268
aF312.5117628806314
aF312.51015409946444
aF312.5131570039548
aF312.51452713989687
aF312.51110729782204
aF312.5117972818979
aF312.51330597139577
aF312.51087829552085
aF312.51079958067345
aF312.512929503174
aF312.51164707926307
aF312.5111581334548
aF312.51080807745507
aF312.5119543612045
aF312.51175341449004
aF312.51058678354764
aF312.5119974130637
aF312.51165884450063
aF312.51095000219277
aF312.5116714637021
aF312.5112666616539
aF312.5095675187103
aF312.5110178908463
aF312.50924608473065
aF312.50930430704494
aF312.51030788533427
aF312.5103228916903
aF312.5079181603376
aF312.5085968895459
aF312.51018904707917
aF312.5079888504989
aF312.50849480231744
aF312.50728556351567
aF312.5089971404355
aF312.50781477508656
aF312.5094760015192
aF312.50779273922257
aF312.5075587268161
aF312.5084373666092
aF312.5069493024865
aF312.5071852255347
aF312.50818204379107
aF312.5067032690279
aF312.50829233039445
aF312.50865467896654
aF312.50729794255915
aF312.5064603790989
aF312.5067761057436
aF312.508996209289
aF312.5064997735444
aF312.50777831833324
aF312.50580718936914
aF312.506739061527
aF312.50497641705016
aF312.5068554114977
aF312.5070987814415
aF312.50584708083585
aF312.5059357849356
aF312.50652619828344
aF312.50489796997346
aF312.5071585184074
aF312.5063468828761
aF312.50534970052723
aF312.505307371975
aF312.50743806708766
aF312.50493721507775
aF312.5037610856597
aF312.50441296235584
aF312.50533866797997
aF312.503980253493
aF312.50540782953
aF312.5053972891164
aF312.5062612470316
aF312.503684181559
aF312.50380267475504
aF312.5026446261314
aF312.5056762076909
aF312.50449790042234
aF312.50388764742115
aF312.5018783019308
aF312.50241164688435
aF312.5054944684327
aF312.50292374115145
aF312.50345885486354
aF312.5023454006073
aF312.50062359804963
aF312.5027470705523
aF312.5011785088549
aF312.5026834924776
aF312.5021871975928
aF312.5015491731356
aF312.5025000631324
aF312.50228953469247
aF312.5030116995433
aF312.50138517663385
aF312.50038248644705
aF312.5021318843199
aF312.49957313909835
aF312.5027868949241
aF312.50060635507447
aF312.5016339745369
aF312.5012693436158
aF312.5018391574829
aF312.50073438619745
aF312.50031154310216
aF312.49827864286334
aF312.50184681392386
aF312.5010414700974
aF312.50068141873516
aF312.49883280691864
aF312.501452617353
aF312.50122218796713
aF312.49938257839233
aF312.4998413985353
aF312.4970087082302
aF312.49865275560455
aF312.49774421412167
aF312.4994055192736
aF312.4990600671768
aF312.5000495198303
aF312.499593794553
aF312.4997666388679
aF312.49800680511873
aF312.499218795673
aF312.49784477654885
aF312.49827824594837
aF312.49777216164466
aF312.49964028266
aF312.5007063061986
aF312.4977628250474
aF312.49818050921965
aF312.4967882008911
aF312.49654168650113
aF312.49710730708955
aF312.4980528166176
aF312.4984867682639
aF312.4949766046358
aF312.4957873098416
aF312.49604779756686
aF312.49723475879006
aF312.4972994299197
aF312.496245596852
aF312.4963013300078
aF312.49469201605785
aF312.49579519613553
aF312.49607275316333
aF312.4927985921006
aF312.49469069655015
aF312.49573983744784
aF312.49347882524677
aF312.4970443912119
aF312.4969401638345
aF312.4958388325074
aF312.49452882618885
aF312.49390428991995
aF312.49528981385873
aF312.49473656913176
aF312.4948491325761
aF312.4936663265567
aF312.4948403085688
aF312.49277131815506
aF312.4925846448021
aF312.4946849452112
aF312.4950425821123
aF312.4936975999189
aF312.4931249872807
aF312.4939911218404
aF312.4938991695365
aF312.49405321001416
aF312.4932511955589
aF312.4931679474965
aF312.49323221604976
aF312.493330465224
aF312.4955196462249
aF312.49246182179263
aF312.493188997527
aF312.49260548227244
aF312.491603330576
aF312.49398427624243
aF312.49214133752724
aF312.4935805618932
aF312.4918945393819
aF312.4942683599246
aF312.4923000763017
aF312.4920445196988
aF312.49121074874694
aF312.4936015383871
aF312.4921563149813
aF312.4925029622074
aF312.49174296371945
aF312.4910649976819
aF312.4903084461706
aF312.4926821960744
aF312.49148176088545
aF312.491381481627
aF312.4919611032011
aF312.4902911438845
aF312.4914044098335
aF312.49146220548425
aF312.4907733925985
aF312.49008002519565
aF312.4898953442424
aF312.49016490814853
aF312.48959724344115
aF312.4891107186813
aF312.4886232911694
aF312.4895157963254
aF312.4895056848765
aF312.4911939793607
aF312.4910949921032
aF312.4872122790562
aF312.48907932385106
aF312.48921386411166
aF312.4886224001615
aF312.48864567029983
aF312.48981802110774
aF312.48834503144917
aF312.49005804818415
aF312.48639191243905
aF312.4885636138617
aF312.4884617056869
aF312.4879391133251
aF312.48792575569996
aF312.4882241675455
aF312.48876578672406
aF312.48743291583645
aF312.48934747472066
aF312.4876432150777
aF312.48862188905963
aF312.4874996958479
aF312.4876386097215
aF312.485876556955
aF312.48554333791895
aF312.4869196446241
aF312.48761718160245
aF312.4872203694679
aF312.4862281523665
aF312.4874378097669
aF312.4863715977398
aF312.48705806995804
aF312.48560264081357
aF312.48469886458093
aF312.4866690053562
aF312.4870073487559
aF312.48507435845437
aF312.4859329262489
aF312.4855575680063
aF312.4853391637171
aF312.4835196067594
aF312.48502456040154
aF312.4862610689293
aF312.48467669220526
aF312.48535562329283
aF312.487111041549
aF312.4849109639359
aF312.4823264063175
aF312.48282316660897
aF312.4859943207379
aF312.4840820805958
aF312.4832079888333
aF312.48332595993867
aF312.4832038319326
aF312.4835916501871
aF312.48276430548555
aF312.4838838008339
aF312.48511767311487
aF312.4848322881248
aF312.4836809606486
aF312.4833477971656
aF312.4830715030198
aF312.48501260988877
aF312.48253854125124
aF312.48268456317317
aF312.48361305126906
aF312.48433256415774
aF312.4830441321166
aF312.4835098206307
aF312.4831312545399
aF312.4824165166383
aF312.48276406325164
aF312.48040049972286
aF312.48098909070904
aF312.48163690232326
aF312.4814412341555
aF312.480890246673
aF312.48233086149446
aF312.4837530018278
aF312.482004393674
aF312.4790896512818
aF312.48167054294964
aF312.47925939401586
aF312.4822129579476
aF312.48277809759145
aF312.4809339995599
aF312.4818581089109
aF312.4800277961176
aF312.48170751058205
aF312.4797469428942
aF312.4798532929534
aF312.4808250852014
aF312.4804328796368
aF312.4795145560834
aF312.48058324377007
aF312.4798317327225
aF312.47871865337464
aF312.48027726266776
aF312.4790629144745
aF312.4797044924474
aF312.4793613407968
aF312.4788027412025
aF312.47886720474435
aF312.4808206048063
aF312.4790180154187
aF312.47806602299795
aF312.47898197493436
aF312.4780560215528
aF312.4795738716774
aF312.477528470918
aF312.4799126493929
aF312.47845760546613
aF312.4782959279462
aF312.4770616832388
aF312.47747908603816
aF312.4787192970201
aF312.4793963698363
aF312.4787197626089
aF312.48007521680273
aF312.4772109442289
aF312.477915275666
aF312.4781115511753
aF312.4766904468178
aF312.4753434848285
aF312.47861243390196
aF312.4769213832348
aF312.4773448625236
aF312.47596658683517
aF312.47887391503826
aF312.4752820482488
aF312.47823588652517
aF312.4765237971499
aF312.475270913325
aF312.47633506048186
aF312.47641608949067
aF312.4769773926279
aF312.47598551272256
aF312.4774913572926
aF312.47475490278373
aF312.4756717937669
aF312.47590145342053
aF312.47536084129575
aF312.47707280666054
aF312.4742283498856
aF312.4747020209609
aF312.4752726058205
aF312.47542741196804
aF312.4754019182648
aF312.4749748745087
aF312.4777244657311
aF312.4748193254978
aF312.4752040327388
aF312.4755693267988
aF312.4755538213863
aF312.4737189495004
aF312.4733947285299
aF312.47444166949305
aF312.4749010955677
aF312.47431785515516
aF312.4746215260953
aF312.47688841916255
aF312.47439593835884
aF312.4727260690031
aF312.47544364680556
aF312.4746510108618
aF312.4729020821644
aF312.4742197847225
aF312.47546652012113
aF312.4745848920084
aF312.4746443869849
aF312.4741492130392
aF312.47286238591266
aF312.4731804776393
aF312.4743421938806
aF312.4746729143363
aF312.4731003589237
aF312.47239215658016
aF312.4728233362985
aF312.47133366719953
aF312.4736187287238
aF312.47190312765207
aF312.4722096575798
aF312.4709584196542
aF312.47469878043074
aF312.4717352680313
aF312.4720473575292
aF312.4705305337952
aF312.4720152037985
aF312.4712812652515
aF312.4720237354828
aF312.4714247757005
aF312.4718743749611
aF312.4697700650448
aF312.4714680915051
aF312.4728523502663
aF312.4715730262462
aF312.4715257568005
aF312.47150897478383
aF312.4703717247236
aF312.4711263926657
aF312.4712001571289
aF312.469337034987
aF312.47291472797446
aF312.4713298158536
aF312.47045763222593
aF312.47083616380513
aF312.4707937789847
aF312.470437714204
aF312.4699747835741
aF312.4694264323248
aF312.46967111672893
aF312.46912753770357
aF312.46912456102143
aF312.4715336932523
aF312.47043695261823
aF312.46873255965215
aF312.4714956302801
aF312.47026461802113
aF312.46960728477404
aF312.4694284301878
aF312.470148026419
aF312.46892439607547
aF312.4700820708688
aF312.4685346062951
aF312.46859636780863
aF312.4682410444873
aF312.4677069879118
aF312.46874301993546
aF312.4674691545351
aF312.46862291600684
aF312.4690473669886
aF312.4677432364206
aF312.46956432716473
aF312.46815375308637
aF312.46917075644933
aF312.4672996591634
aF312.46806651578964
aF312.46925766133614
aF312.46735862104015
aF312.4688428489594
aF312.4688662620095
aF312.4662282723894
aF312.4675107507512
aF312.4662860773973
aF312.4687468528631
aF312.46659523215067
aF312.46786045271364
aF312.46462059631256
aF312.4659434892765
aF312.4660420784751
aF312.46603669888304
aF312.4655841309963
aF312.4669345194275
aF312.46537621213474
aF312.46745705477497
aF312.466250067205
aF312.46537408577507
aF312.4654290543386
aF312.4672929535756
aF312.46701620961875
aF312.4667617184724
aF312.4660189249693
aF312.466117839917
aF312.4652358002137
aF312.4655358813753
aF312.4650905530791
aF312.4641287246751
aF312.4656215287919
aF312.4671319308996
aF312.46588440976984
aF312.46497899786533
aF312.46531500247886
aF312.46370943734325
aF312.4642772495957
aF312.4653074955003
aF312.4655204823865
aF312.4666339942982
aF312.46473434024443
aF312.4647388910988
aF312.46373947697134
aF312.4658733068447
aF312.46670800819544
aF312.46510661130833
aF312.46598266322803
aF312.46556473885505
aF312.4641794098599
aF312.46481586832437
aF312.46440067698023
aF312.4639161392117
aF312.4637684096981
aF312.46429315319205
aF312.4648579469118
aF312.4607067078297
aF312.46142848398534
aF312.46386946913515
aF312.46417498968697
aF312.4643397408233
aF312.46321681094264
aF312.4642143297633
aF312.46264932428124
aF312.46248216216486
aF312.46322058305907
aF312.4611981158789
aF312.4613616887265
aF312.46354637435564
aF312.46373305795584
aF312.46186834666133
aF312.462999279003
aF312.46290343612174
aF312.46159659079007
aF312.46299793808885
aF312.46117821248106
aF312.4627291157979
aF312.4617063241357
aF312.46148157842515
aF312.4611732925341
aF312.4606090888562
aF312.4631631288044
aF312.4623227708552
aF312.46098183749353
aF312.4621395980387
aF312.4624841553429
aF312.46140359376
aF312.46189288526824
aF312.4599010966526
aF312.4615387963142
aF312.4614226540222
aF312.45930689251094
aF312.46072831649167
aF312.46103649858145
aF312.4587120281629
aF312.4594500595084
aF312.45998498300366
aF312.4607989766198
aF312.46091025502415
aF312.45836228293695
aF312.4621471024505
aF312.46177831094616
aF312.4602248570303
aF312.4590646559772
aF312.46069146054873
aF312.4594127840315
aF312.4584940071464
aF312.4595544680985
aF312.45982937271856
aF312.4598052455208
aF312.4601040136576
aF312.4600547126194
aF312.4599816178701
aF312.46098769239467
aF312.4597242166429
aF312.4590141296429
aF312.46074587583763
aF312.4587023556749
aF312.45913194630566
aF312.45633418653273
aF312.45956176346624
aF312.45931139101606
aF312.45909089365284
aF312.4593811063992
aF312.45732500393746
aF312.4582750651697
aF312.45790517016115
aF312.45823465862463
aF312.45777402052227
aF312.45773839649945
aF312.4575782722113
aF312.4577274003623
aF312.45901970123725
aF312.4577115519538
aF312.4573051478894
aF312.4550986193956
aF312.4563790617689
aF312.45776352153086
aF312.45734061042265
aF312.4557764307779
aF312.4575518306027
aF312.458277780801
aF312.457576661634
aF312.45761855183946
aF312.457642737666
aF312.45656313636385
aF312.45689125681474
aF312.4579906153853
aF312.45634918599336
aF312.4532645465497
aF312.45657570460224
aF312.45578765570474
aF312.4579114560628
aF312.45666118136177
aF312.45630373167177
aF312.4563087566887
aF312.455446336843
aF312.45579646807033
aF312.4566486842877
aF312.45656664997745
aF312.45729960726834
aF312.4567797008374
aF312.45633459542944
aF312.4561949242985
aF312.45512953042464
aF312.454156298724
aF312.4549511834535
aF312.45484748041173
aF312.4553520339541
aF312.45459683557937
aF312.4559047723983
aF312.45575753252916
aF312.45419263794446
aF312.4554569896853
aF312.4553445712766
aF312.4535679104647
aF312.45385867034094
aF312.4553311542394
aF312.4551554175697
aF312.4542828130189
aF312.4546253114957
aF312.45546467267434
aF312.45571602954533
aF312.4533579520676
aF312.4543711254447
aF312.45372321125865
aF312.4546066651222
aF312.455984511694
aF312.45301657477984
aF312.4537818224079
aF312.45407544765186
aF312.4532487374256
aF312.45350771173605
aF312.45412411716865
aF312.452738813827
aF312.4537700548657
aF312.4557687943905
aF312.45305485500796
aF312.4521892995093
aF312.4520102283698
aF312.4503618756796
aF312.4528037630357
aF312.45322859735256
aF312.45280901337765
aF312.45374229558274
aF312.4507846679222
aF312.45130209032624
aF312.4507257829835
aF312.45181153840105
aF312.4508443023313
aF312.4521473430582
aF312.4535781293633
aF312.45175856162604
aF312.45091963046406
aF312.4518427905103
aF312.4519656078718
aF312.45302921812015
aF312.4507867456365
aF312.4515321698469
aF312.4515593045002
aF312.45178179960084
aF312.45202634493677
aF312.4489491724195
aF312.45006704943745
aF312.45065959594916
aF312.451141703586
aF312.45294354913784
aF312.4514527190547
aF312.45017085470926
aF312.4516074691639
aF312.452225122436
aF312.44980477307786
aF312.4517404496658
aF312.4509197286467
aF312.4492119312176
aF312.45058022456055
aF312.44985423376494
aF312.44936664644564
aF312.4491205832376
aF312.44989205020363
aF312.4510901093421
aF312.4490411966759
aF312.45001537752796
aF312.44841533611753
aF312.45141110442705
aF312.45061273293743
aF312.44952892437965
aF312.4492978876252
aF312.4495336950368
aF312.4494447533864
aF312.45079765832753
aF312.4499260531164
aF312.4503778363122
aF312.4504491671419
aF312.4493015791816
aF312.4496857507858
aF312.448690500552
aF312.4471838354142
aF312.44742954992455
aF312.4488592104574
aF312.44913375606365
aF312.4477828125758
aF312.4484240426729
aF312.44699049027616
aF312.448221917037
aF312.44887151671594
aF312.446757084537
aF312.44814647089555
aF312.44975349844583
aF312.4465487379923
aF312.44767930157417
aF312.44820344077556
aF312.4492767901123
aF312.4479925179739
aF312.4483178476357
aF312.4458564923969
aF312.4485662993784
aF312.4465926124845
aF312.44733353253343
aF312.44796700772395
aF312.4467360425393
aF312.44801041364957
aF312.44841951105
aF312.4478202191559
aF312.4473615266131
aF312.4485460820112
aF312.4473198066445
aF312.4453448281635
aF312.44592997040144
aF312.44804300033815
aF312.4467960417301
aF312.44769315911753
aF312.4467545089118
aF312.44578249221786
aF312.44598862440375
aF312.4468157066689
aF312.44701018224987
aF312.44706619299365
aF312.4476695399087
aF312.448199149562
aF312.44663688762523
aF312.44516532864935
aF312.4460293972462
aF312.4461316926053
aF312.44666276548816
aF312.4450779944917
aF312.4454639680598
aF312.445286261108
aF312.44549293370045
aF312.44417016968356
aF312.4445281805774
aF312.445381821554
aF312.4441208827161
aF312.4453630549216
aF312.44382668245873
aF312.44602234375157
aF312.44545849719276
aF312.4440491514287
aF312.44405035775696
aF312.44503358998486
aF312.4443763332844
aF312.4455334355703
aF312.44286720216564
aF312.44403235601925
aF312.44533718090037
aF312.4436003964155
aF312.4447281395097
aF312.4438681820892
aF312.44419355423076
aF312.44389197311597
aF312.44588435617896
aF312.4447489228497
aF312.4443914300476
aF312.4452997296387
aF312.44207682421927
aF312.4445766552387
aF312.4456118971234
aF312.44530741348456
aF312.44298727404765
aF312.44270846770104
aF312.4439000141817
aF312.44317037996495
aF312.4422834010252
aF312.4430184607691
aF312.4422214678327
aF312.44340273911115
aF312.44476022493376
aF312.4434464848348
aF312.44523578261675
aF312.44336416174156
aF312.4432748629671
aF312.4438149508059
aF312.44320474224605
aF312.44219785419864
aF312.4443989060499
aF312.442673953968
aF312.44308420901456
aF312.44286072109503
aF312.44263110773
a(lp2
F0.0
aF0.0
aF2.954344432235396e-11
aF4.730844144497405e-10
aF3.753474448864886e-09
aF1.9816886290833293e-08
aF7.891653615639838e-08
aF2.5468693917617393e-07
aF6.983389268771001e-07
aF1.6820736663601331e-06
aF3.6474347980663585e-06
aF7.252600309176561e-06
aF1.3411808507915978e-05
aF2.3320447111692085e-05
aF3.846069401850291e-05
aF6.058465273893448e-05
aF9.167446125756318e-05
aF0.00013388160288016818
aF0.00018944981669750783
aF0.0002606266219426709
aF0.00034956757029074015
aF0.000458236214854617
aF0.0005883026107141275
aF0.0007410436853891467
aF0.0009172488079646706
aF0.0011171328188343424
aF0.0013402574854226262
aF0.0015854618462937653
aF0.0018508022859694364
aF0.002133503746231017
aF0.0024299235114154574
aF0.0027355283848576983
aF0.0030448852447104648
aF0.0033516641934540703
aF0.0036486525903818142
aF0.003927777407546015
aF0.00418013363267333
aF0.004396018314042515
aF0.004564972016125408
aF0.004675830190450627
aF0.004716786150860138
aF0.004675466489961028
aF0.004539019995636561
aF0.004294221869447723
aF0.00392759514588147
aF0.003425550299857287
aF0.0027745424367782664
aF0.001961243623401948
aF0.0009727263366735258
aF-0.0002033468823102325
aF-0.001578532493316581
aF-0.0031634179760994118
aF-0.004967440414429263
aF-0.006998715456557486
aF-0.00926388101154889
aF-0.011767959644575493
aF-0.014514242082432224
aF-0.017504192748865683
aF-0.02073737784337768
aF-0.024211416833269758
aF-0.02792195820946955
aF-0.03186267941119808
aF-0.03602530966591386
aF-0.04039967426333265
aF-0.0449737597988324
aF-0.04973380136970815
aF-0.05466439326701863
aF-0.05974862354058874
aF-0.0649682303998797
aF-0.07030377619492834
aF-0.07573483379555504
aF-0.08124018067339314
aF-0.08679799746604795
aF-0.09238606961571419
aF-0.09798199192509126
aF-0.10356337568169156
aF-0.10910805611519842
aF-0.11459429530110596
aF-0.12000097415849748
aF-0.12530776839062854
aF-0.13049530648774235
aF-0.13554531110110993
aF-0.1404407266834552
aF-0.14516583639842626
aF-0.14970637063521836
aF-0.1540496081752148
aF-0.15818446915137357
aF-0.1621015970996147
aF-0.16579342657445192
aF-0.16925423312130897
aF-0.17248016295154617
aF-0.17546923955189261
aF-0.1782213440374804
aF-0.1807381666256358
aF-0.1830231286275244
aF-0.18508127668616797
aF-0.18691915228339703
aF-0.18854463990293316
aF-0.1899667980599228
aF-0.19119567945231591
aF-0.19224214838330486
aF-0.19311770295938271
aF-0.19383430599373386
aF-0.19440422458085035
aF-0.19483987674949865
aF-0.19515368474737502
aF-0.1953579364940913
aF-0.1954646577904577
aF-0.19548549767355974
aF-0.19543162832511518
aF-0.19531365944940987
aF-0.19514156552218143
aF-0.1949246238117876
aF-0.19467136202410473
aF-0.1943895159019552
aF-0.1940859978876292
aF-0.1937668776181473
aF-0.193437373985502
aF-0.19310185757578435
aF-0.1927638621576816
aF-0.19242610450783237
aF-0.19209051261920257
aF-0.19175826254363432
aF-0.19142982355733826
aF-0.19110501058797186
aF-0.19078304285395117
aF-0.19046260867582507
aF-0.19014193747775432
aF-0.18981887989897173
aF-0.1894909954134268
aF-0.18915564471893168
aF-0.18881008253802592
aF-0.1884515460899909
aF-0.18807733539477375
aF-0.1876848831959377
aF-0.18727181378034188
aF-0.18683599083187394
aF-0.18637555493201763
aF-0.18588895188205484
aF-0.18537495362760772
aF-0.1848326736554569
aF-0.18426157801882495
aF-0.1836614920281299
aF-0.1830326014596424
aF-0.18237544586754434
aF-0.1816909008009914
aF-0.1809801464964477
aF-0.1802446229217297
aF-0.17948597358276544
aF-0.17870598234135895
aF-0.17790650861747992
aF-0.17708942655926238
aF-0.1762565727558063
aF-0.17540970555306284
aF-0.17455047805767193
aF-0.173680426247992
aF-0.17280097224370405
aF-0.17191344074376602
aF-0.17101908512773933
aF-0.17011911952604797
aF-0.16921475387683754
aF-0.16830722968511297
aF-0.1673978543322093
aF-0.16648803130632736
aF-0.16557928305456848
aF-0.16467326308631755
aF-0.1637717550904712
aF-0.1628766588771382
aF-0.1619899648723807
aF-0.16111371982228206
aF-0.16024998614160132
aF-0.15940079625366427
aF-0.15856810210227565
aF-0.1577537201362143
aF-0.1569592739888838
aF-0.15618613928921382
aF-0.15543539565557155
aF-0.15470778978413682
aF-0.15400371158566453
aF-0.1533231832427656
aF-0.1526658595469235
aF-0.1520310375232369
aF-0.151417673528678
aF-0.1508244053913983
aF-0.1502495758595017
aF-0.1496912535016245
aF-0.14914724958141815
aF-0.14861513326041537
aF-0.14809225007698193
aF-0.14757574821040662
aF-0.14706261440260943
aF-0.14654971914182036
aF-0.1460338703256977
aF-0.1455118749698902
aF-0.14498060770093335
aF-0.14443708297085317
aF-0.14387852692144076
aF-0.14330244528922806
aF-0.14270668491884694
aF-0.14208948747699446
aF-0.14144953427491588
aF-0.14078598068030768
aF-0.14009847825304197
aF-0.13938718326700522
aF-0.13865275138122304
aF-0.13789631915053085
aF-0.13711947378235223
aF-0.13632421333263905
aF-0.13551290006446204
aF-0.13468820951459265
aF-0.1338530771609798
aF-0.1330106439237441
aF-0.13216420124362765
aF-0.13131713629121478
aF-0.13047287793260537
aF-0.1296348440711675
aF-0.1288063908644475
aF-0.12799076446345095
aF-0.12719105629100558
aF-0.126410162857171
aF-0.1256507504275263
aF-0.12491522393583224
aF-0.12420569895688321
aF-0.12352397568110272
aF-0.12287151473368844
aF-0.12224941605547882
aF-0.12165840315364673
aF-0.12109881488951384
aF-0.12057060518960587
aF-0.12007334859574856
aF-0.11960624834481366
aF-0.11916814465524497
aF-0.11875752283489664
aF-0.11837252167491136
aF-0.11801094206708415
aF-0.11767025562217942
aF-0.11734761461168623
aF-0.11703986672351052
aF-0.11674357854389095
aF-0.11645506955623243
aF-0.11617045559855556
aF-0.11588569966404089
aF-0.11559666923249655
aF-0.11529920111199726
aF-0.11498917490366661
aF-0.11466259441797137
aF-0.11431567401792482
aF-0.113944925281912
aF-0.11354723912562195
aF-0.11311995943559827
aF-0.11266094564140355
aF-0.11216862275634071
aF-0.11164201803242547
aF-0.11108078375141653
aF-0.110485206171312
aF-0.10985620150212175
aF-0.10919530083167533
aF-0.10850462647503502
aF-0.10778686169754007
aF-0.10704521457538221
aF-0.106283375880399
aF-0.10550547042850221
aF-0.10471600066274561
aF-0.10391978042128182
aF-0.10312185690490223
aF-0.10232742047226441
aF-0.10154170447535309
aF-0.10076987959483498
aF-0.1000169480506083
aF-0.09928764257999767
aF-0.0985863339176179
aF-0.09791694941349441
aF-0.09728290450571037
aF-0.09668704794517906
aF-0.09613162122607809
aF-0.0956182325258162
aF-0.09514784480083963
aF-0.09472077637985123
aF-0.09433671169067388
aF-0.09399472062895031
aF-0.09369328675661327
aF-0.09343034546725212
aF-0.09320333301301022
aF-0.093009246552567
aF-0.09284471457863484
aF-0.09270607590545196
aF-0.09258946384323445
aF-0.09249089106387388
aF-0.09240633072089105
aF-0.09233179056005555
aF-0.0922633783250567
aF-0.0921973579008871
aF-0.092130195958613
aF-0.09205859875365928
aF-0.09197953900428585
aF-0.09189027377566777
aF-0.09178835532410447
aF-0.09167163676955493
aF-0.09153827300029375
aF-0.0913867155296563
aF-0.0912156995658329
aF-0.09102422262143275
aF-0.09081151573085977
aF-0.09057700976626351
aF-0.09032029994572814
aF-0.09004111147355891
aF-0.08973926878632338
aF-0.08941467046252961
aF-0.08906727142422236
aF-0.08869707339701316
aF-0.08830412391376727
aF-0.08788852407526211
aF-0.0874504458321493
aF-0.08699015953744588
aF-0.0865080709425591
aF-0.08600476442649643
aF-0.08548104773810733
aF-0.08493799367163643
aF-0.08437697543995602
aF-0.08379969408977063
aF-0.08320819709294827
aF-0.08260488680409525
aF-0.08199251655695589
aF-0.08137417202496113
aF-0.08075323648748778
aF-0.08013334031296634
aF-0.0795182965920585
aF-0.07891202581412804
aF-0.07831847256184175
aF-0.07774151698313739
aF-0.07718488421832215
aF-0.07665205614486544
aF-0.07614619066999716
aF-0.07567005318909323
aF-0.07522596274127726
aF-0.07481575266890159
aF-0.07444074311754406
aF-0.07410172156962143
aF-0.07379892868744509
aF-0.07353204953938253
aF-0.0733002128789523
aF-0.0731020019111443
aF-0.0729354788205204
aF-0.0727982233108397
aF-0.07268738356591775
aF-0.07259973677291251
aF-0.07253175570174597
aF-0.0724796781391002
aF-0.07243957747217723
aF-0.07240743447753285
aF-0.07237921078758013
aF-0.07235092333685338
aF-0.07231871769089149
aF-0.0722789374761792
aF-0.07222818691070268
aF-0.07216338346793821
aF-0.07208179832146308
aF-0.07198108350697717
aF-0.07185928636262523
aF-0.07171485348537242
aF-0.07154662782167721
aF-0.07135384285622741
aF-0.07113611671942971
aF-0.07089344704059392
aF-0.07062620571374333
aF-0.07033513199128918
aF-0.07002132228727434
aF-0.0696862154403631
aF-0.06933157281564238
aF-0.0689594534186369
aF-0.06857218497549292
aF-0.06817233243771877
aF-0.06776266543844733
aF-0.0673461258691427
aF-0.06692579590205734
aF-0.0665048655217634
aF-0.06608659769129237
aF-0.06567428952711137
aF-0.0652712289960848
aF-0.06488064743586519
aF-0.0645056680650447
aF-0.06414925034291323
aF-0.06381413054046924
aF-0.0635027601618521
aF-0.06321724504636132
aF-0.06295928853820688
aF-0.06273014223236235
aF-0.06253056767789317
aF-0.062360811656008354
aF-0.06222059596451798
aF-0.06210912070252294
aF-0.06202507905343185
aF-0.061966682048856504
aF-0.06193169304384727
aF-0.06191747221365169
aF-0.061921030592290004
aF-0.06193909187580277
aF-0.0619681596519583
aF-0.062004587906468116
aF-0.062044652765923664
aF-0.062084623301007794
aF-0.06212082946251575
aF-0.062149726152026276
aF-0.062167953489679705
aF-0.06217239372402728
aF-0.062160224473489886
aF-0.06212896636254713
aF-0.062076521887500055
aF-0.062001202998745765
aF-0.06190174741275471
aF-0.06177732628815773
aF-0.06162754676209821
aF-0.06145245147538886
aF-0.061252514575979015
aF-0.06102863143507721
aF-0.06078209880313549
aF-0.060514583610922386
aF-0.06022808109246506
aF-0.05992486487146708
aF-0.05960743219758008
aF-0.05927844690541573
aF-0.05894068173078509
aF-0.058596960898048764
aF-0.05825010365914155
aF-0.05790286971571029
aF-0.057557907547748186
aF-0.057217705991812515
aF-0.056884548409633265
aF-0.05656046850481088
aF-0.05624720780199911
aF-0.05594617669841771
aF-0.05565842293567454
aF-0.05538461233900405
aF-0.055125026279371596
aF-0.05487957866543409
aF-0.05464785277629481
aF-0.05442915551441301
aF-0.05422258438793611
aF-0.05402710119916374
aF-0.05384160621462181
aF-0.05366500746760671
aF-0.0534962813786092
aF-0.05333452242964925
aF-0.05317898072297724
aF-0.053029086794198474
aF-0.05288446334317932
aF-0.052744924190165056
aF-0.05261046203123712
aF-0.05248122775329763
aF-0.05235750403887148
aF-0.05223967460960679
aF-0.05212818884058749
aF-0.0520235207026566
aF-0.05192612134571366
aF-0.05183636609391964
aF-0.05175449892973747
aF-0.05168057959239348
aF-0.05161443863767113
aF-0.05155564382203977
aF-0.051503478336997234
aF-0.05145692941600713
aF-0.05141468562389929
aF-0.05137514276378335
aF-0.05133642042339548
aF-0.05129639155333024
aF-0.05125272555471474
aF-0.05120294285029288
aF-0.05114447753809203
aF-0.05107474468422649
aF-0.05099120953450475
aF-0.05089145693863082
aF-0.050773260057296855
aF-0.05063464742666189
aF-0.05047396687828217
aF-0.05028994461497842
aF-0.0500817384044547
aF-0.049848984494368705
aF-0.049591837151859886
aF-0.049310997624578363
aF-0.04900772742866063
aF-0.048683841079818914
aF-0.04834167612151758
aF-0.047984042259230024
aF-0.0476141547283203
aF-0.04723555842285921
aF-0.04685204843926374
aF-0.04646759029795078
aF-0.046086240842371666
aF-0.045712070016252423
aF-0.04534908427067425
aF-0.04500115298504493
aF-0.044671939009525326
aF-0.04436483340693178
aF-0.04408289356664787
aF-0.04382878392639809
aF-0.04360471985385889
aF-0.04341241712622308
aF-0.04325305064407578
aF-0.04312722581255052
aF-0.04303496465124531
aF-0.04297570682894297
aF-0.042948324257641765
aF-0.042951147427096444
aF-0.042982002459656
aF-0.04303825880242496
aF-0.04311688718507955
aF-0.043214526183058745
aF-0.04332755496801715
aF-0.04345217011267371
aF-0.04358446457366288
aF-0.04372050647885909
aF-0.04385641469430701
aF-0.04398842820636785
aF-0.044112967304826674
aF-0.04422668584131248
aF-0.04432651470231236
aF-0.04440969699778684
aF-0.04447381588794113
aF-0.04451681637262026
aF-0.04453702196018578
aF-0.04453314599854951
aF-0.044504296796851334
aF-0.044449976222888515
aF-0.04437007274788541
aF-0.04426485102525447
aF-0.044134940354381355
aF-0.04398132353013713
aF-0.043805326071765335
aF-0.04360860457776916
aF-0.04339313246766367
aF-0.04316118161065122
aF-0.04291529914141525
aF-0.04265827961116314
aF-0.04239313269704916
aF-0.04212304591663416
aF-0.04185134118457757
aF-0.041581424535362815
aF-0.041316729752723824
aF-0.04106065805986037
aF-0.04081651663095603
aF-0.04058745831575411
aF-0.04037642398853834
aF-0.04018608793841837
aF-0.040018806267375744
aF-0.03987656843822669
aF-0.039760952531569714
aF-0.03967308527748428
aF-0.039613608577401524
aF-0.0395826545790977
aF-0.03957983093134838
aF-0.03960421703084128
aF-0.039654371599720815
aF-0.03972835177324977
aF-0.039823743619851144
aF-0.03993770373231528
aF-0.04006701151258161
aF-0.04020813180000717
aF-0.04035728701189252
aF-0.04051053671887479
aF-0.04066386080481116
aF-0.04081324075078344
aF-0.040954732952511355
aF-0.041084528794777204
aF-0.04119899853890843
aF-0.041294719540637743
aF-0.04136849269012451
aF-0.04141735270960925
aF-0.04143857753186777
aF-0.041429700334457906
aF-0.041388526170293954
aF-0.04131315392545761
aF-0.04120200334077903
aF-0.04105384619458685
aF-0.04086784087197214
aF-0.04064357008229475
aF-0.04038108142368852
aF-0.04008092955371245
aF-0.03974421756793871
aF-0.039372634299303225
aF-0.038968483637775365
aF-0.038534701669365984
aF-0.0380748576303071
aF-0.037593135564605425
aF-0.03709429516857926
aF-0.036583612022438955
aF-0.03606679832051003
aF-0.03554990525652662
aF-0.035039208645141186
aF-0.034541081190285344
aF-0.03406185715573585
aF-0.03360769595094269
aF-0.03318444952365852
aF-0.03279753600940659
aF-0.03245182098962858
aF-0.0321515087244698
aF-0.03190004803970985
aF-0.031700059374154654
aF-0.03155328877928356
aF-0.03146059077477549
aF-0.03142193708051649
aF-0.03143644564401841
aF-0.031502425051729455
aF-0.03161743142861825
aF-0.03177833592909756
aF-0.031981400203339894
aF-0.03222235583987754
aF-0.03249648344206313
aF-0.03279868863133693
aF-0.03312357521955896
aF-0.03346551834466763
aF-0.033818741203200865
aF-0.03417739801160004
aF-0.03453566360015421
aF-0.034887827264839716
aF-0.035228385886312365
aF-0.03555212990456448
aF-0.03585421659739301
aF-0.036130228346714484
aF-0.03637621765898451
aF-0.03658874353140757
aF-0.036764904263362125
aF-0.03690237019266955
aF-0.03699941683883062
aF-0.0370549556264204
aF-0.037068556999771296
aF-0.037040460319351105
aF-0.0369715667486012
aF-0.036863414648174386
aF-0.03671814005440655
aF-0.03653842602099898
aF-0.0363274437023298
aF-0.03608878596441579
aF-0.03582639220615755
aF-0.035544462282033285
aF-0.03524735903135505
aF-0.03493950246507191
aF-0.03462526194397733
aF-0.03430885372883422
aF-0.03399424992672923
aF-0.033685102350141424
aF-0.03338468246113698
aF-0.03309583696755329
aF-0.0328209579258755
aF-0.03256196655248991
aF-0.03232031102804202
aF-0.032096979259843415
aF-0.03189252683392072
aF-0.031707118388822654
aF-0.031540578513716576
aF-0.03139244712276506
aF-0.031262034318465165
aF-0.031148470504455336
aF-0.031050748520361895
aF-0.030967755838199912
aF-0.030898296354705236
aF-0.030841102838717178
aF-0.030794842368411415
aF-0.030758117751766532
aF-0.030729467938068255
aF-0.030707370400637445
aF-0.030690248726242077
aF-0.03067648843968011
aF-0.030664462580083856
aF-0.03065256619593435
aF-0.030639256985418487
aF-0.03062309814560879
aF-0.030602798781561028
aF-0.03057724741822719
aF-0.030545535963763134
aF-0.030506974135638888
aF-0.030461096221389983
aF-0.030407662581972802
aF-0.030346658183926404
aF-0.030278289895636034
aF-0.03020298289778305
aF-0.030121374706574833
aF-0.03003430430910117
aF-0.029942794342091232
aF-0.0298480253297755
aF-0.02975130226638205
aF-0.029654015688749424
aF-0.029557601120976818
aF-0.029463500415709498
aF-0.02937312593862738
aF-0.029287826241054533
aF-0.029208851683352795
aF-0.0291373197659829
aF-0.029074181320063838
aF-0.029020189566696653
aF-0.028975874154086242
aF-0.028941521714253134
aF-0.028917163766941253
aF-0.028902572264448367
aF-0.02889726267730028
aF-0.028900504523419582
aF-0.028911339920530632
aF-0.02892861135608738
aF-0.028950999199714826
aF-0.028977067616357394
aF-0.029005315997166308
aF-0.02903423278480132
aF-0.02906234890642294
aF-0.02908828785453024
aF-0.029110809042961566
aF-0.029128841546554006
aF-0.02914150683717843
aF-0.02914813058744595
aF-0.029148244462717333
aF-0.02914157956643545
aF-0.029128054102691293
aF-0.02910775826115874
aF-0.029080938785773024
aF-0.02904798447546538
aF-0.029009412645446254
aF-0.028965855627317093
aF-0.028918045678176168
aF-0.02886679619396795
aF-0.028812976952615747
aF-0.028757481604486452
aF-0.028701187181036585
aF-0.028644907517645972
aF-0.028589343991861506
aF-0.028535037462091076
aF-0.028482325371242328
aF-0.0284313079394992
aF-0.028381826800949715
aF-0.028333458234844813
aF-0.028285521707785578
aF-0.028237102885953953
aF-0.028187088421641426
aF-0.028134208174143062
aF-0.02807708038548839
aF-0.02801425727049906
aF-0.027944271084650543
aF-0.027865681823127545
aF-0.02777712679772793
aF-0.027677370853240412
aF-0.02756535523108776
aF-0.027440243153347692
aF-0.027301460554330168
aF-0.0271487306950148
aF-0.026982101702801436
aF-0.026801966538829936
aF-0.02660907548712626
aF-0.026404541624212453
aF-0.02618983923455333
aF-0.025966793741460086
aF-0.02573756070408999
aF-0.025504592076085218
aF-0.025270589684786123
aF-0.025038447274702013
aF-0.024811183139855312
aF-0.024591866025605983
aF-0.024383537711769127
aF-0.024189135847081378
aF-0.02401141992915812
aF-0.02385290247629236
aF-0.02371578717027476
aF-0.02360191585325389
aF-0.023512725916115883
aF-0.02344921869590389
aF-0.0234119387984212
aF-0.02340096431151905
aF-0.023415908173272104
aF-0.02345593071349304
aF-0.02351976262480243
aF-0.02360573695973098
aF-0.023711828332358596
aF-0.023835697058446185
aF-0.023974735723991634
aF-0.024126116090992106
aF-0.024286835158589683
aF-0.024453760154751175
aF-0.024623673220436376
aF-0.024793317446576275
aF-0.024959445881195814
aF-0.025118873376761847
aF-0.02526852846414018
aF-0.02540550091903167
aF-0.025527081592554415
aF-0.025630793492457647
aF-0.02571441524633536
aF-0.025775999102134874
aF-0.025813885593181166
aF-0.025826716247710133
aF-0.025813444893908653
aF-0.025773347878955265
aF-0.025706033768398646
aF-0.025611453118127254
aF-0.025489908502155878
aF-0.025342064448305394
aF-0.025168956428918806
aF-0.02497199763058959
aF-0.02475298207791294
aF-0.024514082666768314
aF-0.02425784222591823
aF-0.02398715483758917
aF-0.023705234132031367
aF-0.02341556601735084
aF-0.02312184567535161
aF-0.0228279022162237
aF-0.022537617588685926
aF-0.022254847376725603
aF-0.021983349722533223
aF-0.021726726115188107
aF-0.021488375208768014
aF-0.02127145832180075
aF-0.021078873205298585
aF-0.020913231869099637
aF-0.020776838823656996
aF-0.020671667185809206
aF-0.020599331123952968
aF-0.02056105432643991
aF-0.02055763573982483
aF-0.020589415189526696
aF-0.020656242124845424
aF-0.020757450644658025
aF-0.020891843307809927
aF-0.021057685249586216
aF-0.021252709449521383
aF-0.021474134108240096
aF-0.021718693603627964
aF-0.021982684498438106
aF-0.022262027058271266
aF-0.022552341030758087
aF-0.022849032741973994
aF-0.023147389280505276
aF-0.023442674695050122
aF-0.0237302229721828
aF-0.02400552365390713
aF-0.024264298359961644
aF-0.024502569093156602
aF-0.02471672044402653
aF-0.02490355706144256
aF-0.025060355846463756
aF-0.02518491043403688
aF-0.025275564176558775
aF-0.025331227412413136
aF-0.025351376023041078
aF-0.02533603111240224
aF-0.025285722476718574
aF-0.02520143976779139
aF-0.025084575003123066
aF-0.024936859508664432
aF-0.024760298160403867
aF-0.024557103828371847
aF-0.02432963501638591
aF-0.02408033987878078
aF-0.023811710184516378
aF-0.023526249007689005
aF-0.023226455038364166
aF-0.02291482399689577
aF-0.02259386450760372
aF-0.02226612331683273
aF-0.021934213827973524
aF-0.02160084263006424
aF-0.021268830179802706
aF-0.02094112282165788
aF-0.02062079351605296
aF-0.020311028898096807
aF-0.020015101427781814
aF-0.01973632692661302
aF-0.019478008669344408
aF-0.019243369320200907
aF-0.01903547244111807
aF-0.018857136809233805
aF-0.018710848593370702
aF-0.018598677185967152
aF-0.0185221997885574
aF-0.018482438263706637
aF-0.01847980998187011
aF-0.01851409306086536
aF-0.01858440601302528
aF-0.018689202372458823
aF-0.018826281801842253
aF-0.018992819618571077
aF-0.0191854160491739
aF-0.01940016491190113
aF-0.01963273937039329
aF-0.019878490587806226
aF-0.020132554338020355
aF-0.020389961119526637
aF-0.02064574619361151
aF-0.02089505644612495
aF-0.02113325152077715
aF-0.021355997903771136
aF-0.021559355905848614
aF-0.021739859623888885
aF-0.021894588612399048
aF-0.022021227691055724
aF-0.02211810924030811
aF-0.022184232085678695
aF-0.022219253497169536
aF-0.022223454955162484
aF-0.022197686106569633
aF-0.02214329344881331
aF-0.022062040816744274
aF-0.02195602830130854
aF-0.02182761506087937
aF-0.021679349659406797
aF-0.02151390947301019
aF-0.021334049129482467
aF-0.021142557366954737
aF-0.02094222157536432
aF-0.020735798524699263
aF-0.020525988331193075
aF-0.02031540812216543
aF-0.02010656342205681
aF-0.019901817931620342
aF-0.019703363879235297
aF-0.019513195068610344
aF-0.019333084443982247
aF-0.01916456786697908
aF-0.019008935033005245
aF-0.01886722696476086
aF-0.01874023837822071
aF-0.018628523204927402
aF-0.018532402384152297
aF-0.01845197387287549
aF-0.018387125114350054
aF-0.018337548036730596
aF-0.01830275642181148
aF-0.01828210548392876
aF-0.01827481368425834
aF-0.018279986822276197
aF-0.018296644045107127
aF-0.018323744757134542
aF-0.018360214920977454
aF-0.018404971333915728
aF-0.018456943153450863
aF-0.018515090634108198
aF-0.018578421168870724
aF-0.01864600249419197
aF-0.018716972882059844
aF-0.01879054846873273
aF-0.01886602818198261
aF-0.01894279648469729
aF-0.019020323188731106
aF-0.01909815856646685
aF-0.019175921961122024
aF-0.019253283355014243
aF-0.01932993900972242
aF-0.019405583272677475
aF-0.019479878732372162
aF-0.01955242664517175
aF-0.019622739379684322
aF-0.019690216404353866
aF-0.019754124997018795
aF-0.019813586805077665
aF-0.019867571858814256
aF-0.019914902076655274
aF-0.019954266059113157
aF-0.01998424598279173
aF-0.020003355823247373
aF-0.020010088206488016
aF-0.02000296566402796
aF-0.01998059179279552
aF-0.01994169887502754
aF-0.01988519019192473
aF-0.019810176772880127
aF-0.019716009234641927
aF-0.019602305552991663
aF-0.019468975054390294
aF-0.01931623793215524
aF-0.019144638928193968
aF-0.01895505391383594
aF-0.018748688502939637
aF-0.01852706799592455
aF-0.01829201824755174
aF-0.01804563814145868
aF-0.017790265927788564
aF-0.017528442640203794
aF-0.01726287553580386
aF-0.01699640324764737
aF-0.01673196277735038
aF-0.01647255734816721
aF-0.016221223848580296
aF-0.015980998603880223
aF-0.015754879881073082
aF-0.015545785328861066
aF-0.015356503552709828
aF-0.015189641236202804
aF-0.015047569206002974
aF-0.014932371061989138
aF-0.01484579645122064
aF-0.014789219560508321
aF-0.014763603741591861
aF-0.014769474960533862
aF-0.01480690765679909
aF-0.014875524994045698
aF-0.014974512169185009
aF-0.015102638638155306
aF-0.01525828442524385
aF-0.01543946709748502
aF-0.01564386831360838
aF-0.0158688607364168
aF-0.016111536840353886
aF-0.016368741050321305
aF-0.016637106401025118
aF-0.01691309661341477
aF-0.017193053845884855
aF-0.017473251702264617
aF-0.017749953042539155
aF-0.01801947259432346
aF-0.018278244341342183
aF-0.018522892474388163
aF-0.018750302630768982
aF-0.01895768855428129
aF-0.01914264951830178
aF-0.019303215591924633
aF-0.019437879330127104
aF-0.019545612685084986
aF-0.019625867679563407
aF-0.01967855993544923
aF-0.019704035680353966
aF-0.019703024675463487
aF-0.019676583027876837
aF-0.019626030644667652
aF-0.01955288782666118
aF-0.019458814528870976
aF-0.01934555503509555
aF-0.019214890561125585
aF-0.019068602070448897
aF-0.018908444650126397
aF-0.018736132957870015
aF-0.018553335267134145
aF-0.01836167290742752
aF-0.018162722914909966
aF-0.017958023288291155
aF-0.017749080959907605
aF-0.017537382085343677
aF-0.017324403021920846
aF-0.017111619312160296
aF-0.01690050997924156
aF-0.01669255555467637
aF-0.016489229763295577
aF-0.016291986062410547
aF-0.0161022412156488
aF-0.015921358627814405
aF-0.015750633617295135
aF-0.015591280968094548
aF-0.015444423023386975
aF-0.015311075656945507
aF-0.015192130338049491
aF-0.01508833274074114
aF-0.015000260537261806
aF-0.014928303845469284
aF-0.014872651322135997
aF-0.014833284078789819
aF-0.014809978761308715
aF-0.014802319810728187
aF-0.014809719141018994
aF-0.014831440025636114
aF-0.014866621392043535
aF-0.014914298994392844
aF-0.014973421229603441
aF-0.015042859555970765
aF-0.015121415430398293
aF-0.015207826235648453
aF-0.015300771864948718
aF-0.015398882349495352
aF-0.015500746126516248
aF-0.01560491891099774
aF-0.015709934252060454
aF-0.01581431728475875
aF-0.01591660214345112
aF-0.016015351974208406
aF-0.01610917994840912
aF-0.016196770237765674
aF-0.016276898412216436
aF-0.016348450416679757
aF-0.016410438634894355
aF-0.016462013430475524
aF-0.016502469238355397
aF-0.01653124548447024
aF-0.016547923942354794
aF-0.016552224948385975
aF-0.016544004509197806
aF-0.016523253010957483
aF-0.016490095178873655
aF-0.016444790789016187
aF-0.016387735780713453
aF-0.016319463093754687
aF-0.016240642075161543
aF-0.016152075445336145
aF-0.016054693457676954
aF-0.015949545207865356
aF-0.015837786837690115
aF-0.015720666282887322
aF-0.015599504831134162
aF-0.015475676912811246
aF-0.0153505903929927
aF-0.015225669310650976
aF-0.015102339409455538
aF-0.0149820147176586
aF-0.014866081959498189
aF-0.014755879562313804
aF-0.014652669804391323
aF-0.0145576055794077
aF-0.014471695748130918
aF-0.014395773929997543
aF-0.014330474911791053
aF-0.014276221118123395
aF-0.014233219268720619
aF-0.014201465357925241
aF-0.014180755427869495
aF-0.014170700207343232
aF-0.014170742521694197
aF-0.014180176710744383
aF-0.01419816926148416
aF-0.01422377989741619
aF-0.014255982623120368
aF-0.014293686719962838
aF-0.014335758472308183
aF-0.014381045080960324
aF-0.01442840187692715
aF-0.014476722466477805
aF-0.014524970091207758
aF-0.014572208044472856
aF-0.014617626635286875
aF-0.014660563534393604
aF-0.014700514509301868
aF-0.014737133176552772
aF-0.014770220283362778
aF-0.014799703857505578
aF-0.014825611521613973
aF-0.014848036471579208
aF-0.014867099692843205
aF-0.014882912492304144
aF-0.014895544176485516
aF-0.014904998662252636
aF-0.014911201233283175
aF-0.01491399432498385
aF-0.014913140613043958
aF-0.014908332351321907
aF-0.014899206572954985
aF-0.014885366212281098
aF-0.014866407636431241
aF-0.014841954682672302
aF-0.01481169735790078
aF-0.014775431028330368
aF-0.01473309117100414
aF-0.014684779914696952
aF-0.014630782215067247
aF-0.01457157046699204
aF-0.014507797221754824
aF-0.014440277331739219
aF-0.014369962580746465
aF-0.014297912176815298
aF-0.014225261363110928
aF-0.014153189229596134
aF-0.014082886237001446
aF-0.014015521399170422
aF-0.013952208462202008
aF-0.01389397086480285
aF-0.013841707046388138
aF-0.013796159223306834
aF-0.01375788863506467
aF-0.013727258900742629
aF-0.013704427742338
aF-0.013689346324416068
aF-0.013681764580495297
aF-0.013681240165717739
aF-0.013687148656263134
aF-0.013698693902011016
aF-0.013714919644922571
aF-0.013734725077269404
aF-0.01375688670297621
aF-0.013780087147053215
aF-0.013802949839445569
aF-0.013824077622271325
aF-0.013842093263974082
aF-0.013855680161041405
aF-0.013863621527930208
aF-0.013864835659979551
aF-0.013858403867051563
aF-0.013843587693193047
aF-0.01381983369503325
aF-0.013786766580173051
aF-0.013744173791344044
aF-0.01369198607303548
aF-0.013630258780477626
aF-0.013559157546250745
aF-0.013478950045958943
aF-0.013390003933121532
aF-0.01329278986325684
aF-0.013187887744078823
aF-0.013075993959601321
aF-0.012957927497786926
aF-0.012834633614485887
aF-0.012707184641679841
aF-0.012576778370977152
aF-0.012444734471456302
aF-0.01231248847152528
aF-0.012181581860560075
aF-0.012053646892646172
aF-0.011930385777334284
aF-0.011813545565187038
aF-0.011704891343780395
aF-0.011606180173817543
aF-0.011519136306802149
aF-0.011445426418377022
aF-0.011386633525366695
aF-0.011344229387220827
aF-0.011319546177606032
aF-0.011313748590692762
aF-0.011327807312864223
aF-0.011362474180388174
aF-0.011418259071170033
aF-0.011495408895526308
aF-0.011593889269786219
aF-0.011713369166157877
aF-0.011853208484254505
aF-0.01201244844447575
aF-0.012189804806580457
aF-0.01238366408748734
aF-0.012592083329853393
aF-0.01281279458608231
aF-0.013043215979794012
aF-0.013280471690452362
aF-0.013521423118924467
aF-0.013762712634860152
aF-0.014000819816717263
aF-0.014232128602556623
aF-0.014453003053752885
aF-0.014659869414178992
aF-0.014849301968096114
aF-0.015018109706209627
aF-0.015163420714234918
aF-0.015282761593187505
aF-0.015374129319023294
aF-0.01543605243360882
aF-0.01546763803258015
aF-0.015468601517421752
aF-0.015439277548795618
aF-0.015380612360068508
aF-0.015294138871578105
aF-0.015181936670514155
aF-0.015046578941484057
aF-0.014891067995850297
aF-0.014718760441859184
aF-0.014533282741100993
aF-0.014338438466845972
aF-0.014138109974574972
aF-0.013936158297620124
aF-0.013736324869576232
aF-0.013542137699956361
aF-0.013356824266128922
aF-0.013183233979277332
aF-0.013023773749199833
aF-0.012880359937290536
aF-0.012754388538019457
aF-0.012646723328195608
aF-0.01255770011464778
aF-0.012487144781067846
aF-0.01243440314190637
aF-0.01239838077215357
aF-0.012377590669017939
aF-0.01237020623770404
aF-0.01237411726167491
aF-0.012386987148366675
aF-0.012406310301145234
aF-0.012429469044644034
aF-0.012453790560686268
aF-0.01247660517594951
aF-0.012495306916025775
aF-0.012507415531503958
aF-0.012510637320385017
aF-0.012502920881971412
aF-0.012482503937742279
aF-0.012447948916047247
aF-0.012398167568452106
aF-0.012332436698935896
aF-0.012250406807808893
aF-0.0121521039201556
aF-0.01203792425549082
aF-0.011908622449869018
aF-0.011765295095937073
aF-0.011609360708351673
aF-0.011442535569240206
aF-0.01126680440678305
aF-0.011084386234657777
aF-0.01089769754477914
aF-0.010709315666725951
aF-0.010521944020777385
aF-0.010338379087917586
aF-0.010161477441816573
aF-0.009994120714673439
aF-0.009839176608761506
aF-0.009699454511922338
aF-0.009577654978181034
aF-0.009476313725382055
aF-0.009397742691594607
aF-0.009343972024862665
aF-0.009316696792758693
aF-0.009317230894360384
aF-0.009346469079842002
aF-0.00940485693320887
aF-0.009492368329047774
aF-0.009608490059701203
aF-0.009752214036203603
aF-0.00992203861700405
aF-0.010115981370272144
aF-0.010331604780910398
aF-0.010566054258513589
aF-0.010816106049515203
aF-0.011078222448577776
aF-0.011348612201311592
aF-0.011623294150768178
aF-0.011898162529903592
aF-0.012169053717211265
aF-0.01243181614114645
aF-0.0126823857074221
aF-0.012916867706827836
aF-0.013131623207554254
aF-0.013323354931437326
aF-0.013489185907079213
aF-0.013626724381913922
aF-0.013734110398368296
aF-0.013810042335905177
aF-0.013853784493292144
aF-0.013865158563538718
aF-0.013844522374052306
aF-0.01379273859732591
aF-0.013711134557012084
aF-0.013601452764890993
aF-0.01346579195585627
aF-0.013306540578194685
aF-0.013126307433796886
aF-0.01292785536294141
aF-0.01271404266064859
aF-0.012487774124371666
aF-0.01225196121441155
aF-0.012009490334705967
aF-0.011763199227731353
aF-0.011515861789198258
aF-0.011270180102680664
aF-0.01102878042565179
aF-0.01079420923428858
aF-0.010568926781560338
aF-0.010355297752445664
aF-0.010155580067503478
aF-0.009971913347872906
aF-0.009806308574963726
aF-0.009660640208123517
aF-0.00953664095969211
aF-0.009435897541704971
aF-0.009359843782573995
aF-0.009309746597454108
aF-0.009286681356342278
aF-0.009291496363782943
aF-0.009324769819904913
aF-0.009386764537969746
aF-0.009477385300620752
aF-0.009596142407093987
aF-0.00974212407289593
aF-0.00991398010050432
aF-0.010109919137306564
aF-0.010327721204738662
aF-0.010564765484498403
aF-0.010818071012483584
aF-0.01108434649021377
aF-0.011360045772749799
aF-0.011641426780821536
aF-0.011924612235155787
aF-0.0122056506638159
aF-0.012480576377249936
aF-0.012745467737041117
aF-0.012996503424902116
aF-0.013230016006071911
aF-0.013442541279429435
aF-0.013630861835488511
aF-0.013792044452310597
aF-0.013923472606377836
aF-0.01402287607761341
aF-0.014088358876864502
aF-0.014118425220037867
aF-0.014112002089921928
aF-0.014068456527269752
aF-0.01398760597836463
aF-0.013869720681564605
aF-0.013715518222526266
aF-0.013526151441175891
aF-0.013303190917360957
aF-0.013048602399345815
aF-0.01276471898574993
aF-0.012454208436290632
aF-0.01212003716389084
aF-0.01176543304616741
aF-0.011393848459660955
aF-0.011008923385654063
aF-0.010614447343201527
aF-0.010214318990569824
aF-0.009812503075097246
aF-0.009412985150201706
aF-0.009019724745811118
aF-0.008636607824790095
aF-0.008267399839075294
aF-0.007915701315026745
aF-0.007584908050555154
aF-0.007278177597832837
aF-0.006998403149431169
aF-0.006748195353585596
aF-0.006529871539329279
aF-0.0063454501276808154
aF-0.006196646365035828
aF-0.006084865363640918
aF-0.006011190496237816
aF-0.005976368219169568
aF-0.00598079216766787
aF-0.006024489105967048
aF-0.006107108071177644
aF-0.006227912950609605
aF-0.006385778205421535
aF-0.006579187713330014
aF-0.0068062376580842665
aF-0.007064645225732608
aF-0.007351764687827376
aF-0.007664611386205417
aF-0.007999893044775804
aF-0.008354047146550015
aF-0.00872328269147114
aF-0.009103624444232232
aF-0.009490957885616538
aF-0.00988107349404416
aF-0.010269709683115054
aF-0.010652594701031883
aF-0.011025488967173504
aF-0.01138423036356642
aF-0.011724785190852113
aF-0.012043306075194713
aF-0.012336195370125935
aF-0.01260017015490581
aF-0.01283232419321655
aF-0.013030182998754688
aF-0.013191749400785319
aF-0.013315538233619301
aF-0.01340060009075669
aF-0.013446535159993458
aF-0.013453498202765887
aF-0.013422194762755562
aF-0.013353867888314632
aF-0.013250274955580819
aF-0.013113655204488974
aF-0.012946689589403669
aF-0.012752455128665382
aF-0.012534375709780096
aF-0.012296170056546714
aF-0.01204179601823814
aF-0.011775389545779434
aF-0.011501197086747803
aF-0.011223501789830753
aF-0.010946546611500846
aF-0.010674459491554112
aF-0.010411185271159893
aF-0.010160426543727917
aF-0.009925593736015365
aF-0.009709764544022451
aF-0.009515653182403622
aF-0.009345589528784731
aF-0.009201507197384516
aF-0.009084938282506656
aF-0.008997011311464041
aF-0.008938448592724642
aF-0.008909560442612287
aF-0.008910236313813593
aF-0.008939935016472741
aF-0.008997676941698516
aF-0.009082040958526424
aF-0.009191168303260859
aF-0.009322775179217242
aF-0.009474174589291314
aF-0.00964230675150526
aF-0.009823777162996941
aF-0.010014901918374798
aF-0.010211760632015536
aF-0.010410257953429597
aF-0.010606195085559014
aF-0.010795352457824033
aF-0.010973583263519122
aF-0.011136915232466316
aF-0.011281655705537508
aF-0.011404493408806955
aF-0.011502589657621212
aF-0.011573652863487632
aF-0.011615993431500897
aF-0.011628559742184777
aF-0.011610957486384401
aF-0.011563453530653663
aF-0.01148696338817879
aF-0.011383020495495439
aF-0.011253726740844152
aF-0.011101686086675631
aF-0.010929925138480168
aF-0.010741805471911283
aF-0.010540932553457042
aF-0.01033106533831577
aF-0.010116029400123126
aF-0.009899635351903588
aF-0.009685603746549783
aF-0.009477497482609336
aF-0.009278662702472585
aF-0.00909217897445343
aF-0.008920819029741336
aF-0.00876701768737974
aF-0.008632849242471456
aF-0.008520012549465234
aF-0.008429822895234954
aF-0.00836320933099285
aF-0.008320715987624416
aF-0.008302506668874696
aF-0.008308373227723818
aF-0.00833774873174877
aF-0.00838972587170774
aF-0.008463080115357955
aF-0.008556296415704287
aF-0.008667598177092305
aF-0.008794977849374202
aF-0.008936229639706767
aF-0.00908898531776304
aF-0.009250753053564872
aF-0.009418957178629717
aF-0.00959097531079996
aF-0.00976416965798194
aF-0.009935911407694197
aF-0.010103599715157875
aF-0.010264678641958996
aF-0.010416656006208797
aF-0.010557127579855502
aF-0.010683808407881058
aF-0.010794570634553193
aF-0.010887485318550043
aF-0.010960865081488374
aF-0.011013304605292705
aF-0.01104371633378668
aF-0.011051359252464338
aF-0.01103585953365364
aF-0.010997223007208864
aF-0.010935840227295239
aF-0.010852484715646331
aF-0.010748303993792079
aF-0.010624802305229284
aF-0.010483814243067673
aF-0.010327469727914084
aF-0.010158152128543268
aF-0.009978451857373904
aF-0.009791117250792868
aF-0.009599003740053135
aF-0.009405022220782934
aF-0.009212088119333512
aF-0.009023072902680066
aF-0.008840759016655266
aF-0.008667797953478804
aF-0.008506670141917225
aF-0.008359644971969596
aF-0.008228739746813337
aF-0.008115677746517528
aF-0.008021847219548118
aF-0.007948264241840586
aF-0.007895543027620333
aF-0.007863877495355212
aF-0.007853037053329128
aF-0.007862377413474798
aF-0.007890864696404515
aF-0.00793710925106721
aF-0.007999404925532404
aF-0.00807577022846493
aF-0.008163989728431261
aF-0.008261655889351585
aF-0.008366212158904013
aF-0.008474997784497684
aF-0.008585294203639144
aF-0.008694371920559558
aF-0.008799535795515043
aF-0.008898166625780518
aF-0.008987758201725512
aF-0.009065950800651361
aF-0.009130562958623845
aF-0.009179622659387245
aF-0.009211397567294844
aF-0.009224423225131041
aF-0.00921752892180282
aF-0.009189862185819483
aF-0.009140913144409782
aF-0.009070538994223304
aF-0.008978987437293619
aF-0.008866917081679977
aF-0.008735412462622261
aF-0.00858599096408649
aF-0.008420598808116428
aF-0.008241594349534666
aF-0.008051718961392715
aF-0.007854057316445357
aF-0.007651988922967854
aF-0.007449131953888953
aF-0.007249279867115634
aF-0.007056331609526253
aF-0.006874216968825811
aF-0.006706818932555279
aF-0.006557894214459953
aF-0.006430992213007039
aF-0.006329372848603289
aF-0.006255925101155018
aF-0.006213089561020212
aF-0.006202788949891121
aF-0.006226370197950347
aF-0.006284560542064905
aF-0.006377438539504684
aF-0.006504419462272025
aF-0.00666425407999178
aF-0.006855040442999038
aF-0.007074249026135478
aF-0.007318761807179782
aF-0.007584925728401406
aF-0.007868620800471867
aF-0.008165342669499068
aF-0.008470298481253934
aF-0.008778513260584094
aF-0.009084942124096806
aF-0.009384582395934284
aF-0.009672579907272024
aF-0.00994432507766324
aF-0.010195535871841192
aF-0.010422326175454565
aF-0.010621259650086779
aF-0.010789390297511518
aF-0.010924291390043703
aF-0.011024074404473054
aF-0.01108739966320774
aF-0.011113480655978973
aF-0.01110208415257081
aF-0.011053527814001707
aF-0.010968675998260985
aF-0.0108489331544072
aF-0.010696232999704233
aF-0.010513020871686114
aF-0.010302226465870229
aF-0.01006722466782397
aF-0.009811783212347014
aF-0.009539997301494836
aF-0.009256212872633354
aF-0.008964941376352332
aF-0.008670769202642143
aF-0.008378264495464496
aF-0.008091883713504444
aF-0.00781588042300937
aF-0.007554219510621412
aF-0.007310500751059125
aF-0.007087895454802463
aF-0.006889098365519665
aF-0.006716295081905112
aF-0.006571144478141376
aF-0.0064547761412193224
aF-0.006367803517693956
aF-0.006310352948474861
aF-0.006282107052181103
aF-0.006282359061136807
aF-0.006310073555271231
aF-0.006363948659276704
aF-0.006442475031469629
aF-0.006543987954268454
aF-0.006666710484138958
aF-0.006808787183885266
aF-0.0069683084562990865
aF-0.007143325059176482
aF-0.007331852349057838
aF-0.007531865049681696
aF-0.007741285285104663
aF-0.007957968097936573
aF-0.008179689119642656
aF-0.008404138578835667
aF-0.008628924592234898
aF-0.008851586625415173
aF-0.009069617491494522
aF-0.00928049057531311
aF-0.009481689321308703
aF-0.009670737993192732
aF-0.009845234616560549
aF-0.010002887438626507
aF-0.01014155488300533
aF-0.010259286690632738
aF-0.010354362313575845
aF-0.010425322934593879
aF-0.010470995497412051
aF-0.010490509138545904
aF-0.010483304760039313
aF-0.010449137299896168
aF-0.010388069266361407
aF-0.010300454622127765
aF-0.010186913851732395
aF-0.010048302930990408
aF-0.00988568011233509
aF-0.009700274622371252
aF-0.009493460670653858
aF-0.009266738942044238
aF-0.009021726359233212
aF-0.00876015399933016
aF-0.00848387319223521
aF-0.00819487020261121
aF-0.007895288631211835
aF-0.00758745550950085
aF-0.007273904318918799
aF-0.006957388057598685
aF-0.0066408778308367795
aF-0.00632754561384184
aF-0.006020732529091632
aF-0.005723905729506663
aF-0.00544060775971147
aF-0.00517440198797655
aF-0.004928816215554858
aF-0.004707284538858526
aF-0.00451308645956496
aF-0.004349282813371909
aF-0.0042186494909512845
aF-0.004123611104338196
aF-0.004066177408024739
aF-0.004047885457330553
aF-0.0040697502203939796
aF-0.0041322258779954
aF-0.0042351796777988825
aF-0.004377879925206822
aF-0.004558998940075303
aF-0.004776630246557023
aF-0.005028317604416744
aF-0.00531109289386983
aF-0.005621520432385038
aF-0.00595574611205147
aF-0.00630955036964377
aF-0.006678404788568064
aF-0.007057533053667899
aF-0.007441977362937127
aF-0.007826670969462653
aF-0.00820651679409912
aF-0.008576471441441247
aF-0.008931633428300636
aF-0.009267334038647499
aF-0.009579228934117572
aF-0.009863387938935183
aF-0.010116379106900093
aF-0.010335342222371811
aF-0.010518047114111053
aF-0.01066293304739386
aF-0.010769126355368735
aF-0.010836434961849125
aF-0.010865321045959407
aF-0.010856855749352662
aF-0.010812661193494208
aF-0.01073484507775697
aF-0.010625932224400803
aF-0.010488795810394861
aF-0.010326589134174106
aF-0.01014267743033913
aF-0.009940568849014333
aF-0.009723843979994654
aF-0.00949608390082052
aF-0.009260797642940112
aF-0.009021351094722019
aF-0.00878090024909378
aF-0.008542332147552113
aF-0.00830821715257689
aF-0.00808077615267162
aF-0.007861865057417773
aF-0.007652976235551338
aF-0.007455253827333001
aF-0.007269518887846686
aF-0.007096301280246917
aF-0.006935876769980869
aF-0.006788308498650591
aF-0.0066534917255995025
aF-0.0065312001387609
aF-0.006421131773878334
aF-0.006322952581987229
aF-0.0062363355657514006
aF-0.006160993191799758
aF-0.006096701173578917
aF-0.006043313326725277
aF-0.006000769416119381
aF-0.00596909899933916
aF-0.005948423203598781
aF-0.005938954223410859
aF-0.005940990937654427
aF-0.005954908786996448
aF-0.005981142075149336
aF-0.006020157001754359
aF-0.0060724146660271535
aF-0.006138325092210798
aF-0.006218195213446115
aF-0.006312174862528787
aF-0.006420205067934594
aF-0.006541973076163319
aF-0.006676878900818642
aF-0.0068240177535465124
aF-0.006982180190245431
aF-0.007149868029450073
aF-0.007325321480076967
aF-0.007506552849495855
aF-0.0076913839582918725
aF-0.007877486273560682
aF-0.008062423578493433
aF-0.008243696496640997
aF-0.008418787007055294
aF-0.008585200242148623
aF-0.00874050110911299
aF-0.008882344664938478
aF-0.009008501161266898
aF-0.009116878531881215
aF-0.009205546121389076
aF-0.009272763072069796
aF-0.009317012960673709
aF-0.009337043808794162
aF-0.009331910534258673
aF-0.009301015790815282
aF-0.00924414502675881
aF-0.009161492411956174
aF-0.009053675667324379
aF-0.008921739242937586
aF-0.008767146488412396
aF-0.008591762210549272
aF-0.008397826845183485
aF-0.00818792253301206
aF-0.007964930711595377
aF-0.00773198097431913
aF-0.007492391430827814
aF-0.007249601362350268
aF-0.007007098006700892
aF-0.006768340707716993
aF-0.0065366863152140076
aF-0.0063153189067511155
aF-0.006107185408099933
aF-0.005914937978501988
aF-0.005740884497699934
aF-0.005586949129073927
aF-0.005454644755441321
aF-0.005345058170792337
aF-0.005258847844638419
aF-0.0051962531284845
aF-0.005157112856894819
aF-0.005140890549276012
aF-0.0051467036681142105
aF-0.0051733562560384245
aF-0.005219376779699027
aF-0.0052830640633600425
aF-0.005362542623559005
aF-0.0054558253716687245
aF-0.005560878736892178
aF-0.005675684664997561
aF-0.0057982958779541904
aF-0.005926883713537539
aF-0.006059779783369736
aF-0.006195512625623346
aF-0.006332839016974088
aF-0.006470767773690115
aF-0.006608572707373023
aF-0.006745791747771877
aF-0.006882211211301541
aF-0.007017836494855071
aF-0.007152851580637981
aF-0.007287569693327714
aF-0.0074223775134912235
aF-0.007557676018456684
aF-0.007693821513991104
aF-0.007831070168177424
aF-0.007969528983861628
aF-0.008109116391513346
aF-0.008249535908991435
aF-0.008390265147594125
aF-0.008530559525130791
aF-0.008669466966339872
aF-0.008805848664710323
aF-0.008938402111162822
aF-0.00906568461503945
aF-0.009186136881376136
aF-0.00929810675188311
aF-0.009399873640959462
aF-0.009489674723570601
aF-0.00956573436696481
aF-0.009626298394886205
aF-0.009669674332331572
aF-0.009694277906802705
aF-0.009698685004038133
aF-0.009681686951646097
aF-0.009642345620157198
aF-0.00958004421551584
aF-0.009494530274645228
aF-0.009385948469580813
aF-0.009254861244996667
aF-0.009102255228318302
aF-0.008929532000575993
aF-0.0087384836082006
aF-0.008531254977946323
aF-0.008310295909591196
aF-0.00807830461114147
aF-0.0078381638508056
aF-0.007592870612578222
aF-0.0073454608067287045
aF-0.007098931754756191
aF-0.0068561664300928644
aF-0.006619864481580773
aF-0.006392485515533615
aF-0.0061762093055966055
aF-0.005972915118040805
aF-0.005784179014719658
aF-0.005611285625008992
aF-0.005455250426597917
aF-0.005316849269882459
aF-0.005196652382403156
aF-0.005095060007631042
aF-0.005012336711920637
aF-0.0049486415946253725
aF-0.0049040520601822185
aF-0.004878579573881072
aF-0.004872176963276739
aF-0.004884737609535938
aF-0.004916086788386719
aF-0.004965965331108776
aF-0.005034006783528579
aF-0.005119710995339409
aF-0.005222418167497689
aF-0.005341287052076718
aF-0.005475279700563066
aF-0.0056231537269909515
aF-0.005783461892660644
aF-0.005954557922924465
aF-0.006134606831163081
aF-0.006321597894317045
aF-0.006513358985715162
aF-0.006707572021778664
aF-0.006901790568461208
aF-0.00709346195712501
aF-0.007279956740995412
aF-0.00745860701280519
aF-0.007626752512489373
aF-0.007781791476580399
aF-0.007921233071341653
aF-0.008042749511782661
aF-0.008144227120729802
aF-0.008223815525734273
aF-0.008279973038784864
aF-0.00831150503170093
aF-0.008317591704522885
aF-0.008297802428053669
aF-0.008252095910917022
aF-0.008180808246896789
aF-0.008084632964345974
aF-0.007964597295988021
aF-0.007822037470502157
aF-0.007658574451543136
aF-0.007476090998036177
aF-0.007276710735219648
aF-0.007062779597446394
aF-0.006836849614286009
aF-0.006601664640448941
aF-0.0063601470626929385
aF-0.006115383801698255
aF-0.005870609468491091
aF-0.005629184457329294
aF-0.0053945658447173885
aF-0.005170269351802085
aF-0.0049598217809669835
aF-0.0047667050434772535
aF-0.004594294086046396
aF-0.004445791129005682
aF-0.004324158351764456
aF-0.004232051354399523
aF-0.004171756114089394
aF-0.004145131900158757
aF-0.004153561720223209
aF-0.004197911165519783
aF-0.004278496390599718
aF-0.0043950619604690355
aF-0.00454676886658467
aF-0.004732192124335008
aF-0.004949326662334672
aF-0.005195600473265886
aF-0.005467895264909731
aF-0.005762576211678364
aF-0.0060755325976744575
aF-0.006402229750875817
aF-0.006737771006741197
aF-0.007076968340934701
aF-0.007414421704066878
aF-0.007744608057278703
aF-0.008061980527593831
aF-0.008361076720694574
aF-0.00863663398730475
aF-0.008883708257405856
aF-0.009097791543960919
aF-0.009274921661968628
aF-0.00941177702681683
aF-0.009505750332044545
aF-0.009554997365681125
aF-0.00955846030423527
aF-0.009515867423896478
aF-0.009427712681969711
aF-0.009295219075800632
aF-0.009120289360655898
aF-0.008905447011313634
aF-0.00865376978796556
atp3
a.