(lp0
((lp1
F308.14856581611065
aF308.15067060892835
aF308.1496358116636
aF308.1503187829195
aF308.15079150041316
aF308.15043563729296
aF308.1494580821907
aF308.1517915351006
aF308.1491018133813
aF308.14996308979534
aF308.1506102796781
aF308.1489828976583
aF308.14843965059777
aF308.1514671888957
aF308.1505937107783
aF308.1485293733372
aF308.1493696031375
aF308.14955970168955
aF308.1482911608584
aF308.14852065697374
aF308.14934989705205
aF308.1483208570753
aF308.15035056841015
aF308.1492823476651
aF308.1468157978276
aF308.14734467359506
aF308.14709464398874
aF308.1459052196765
aF308.14527008006945
aF308.1448320159887
aF308.14395549904486
aF308.1432062819466
aF308.1428794246776
aF308.141845015257
aF308.14033880834575
aF308.13989655761213
aF308.1371138167164
aF308.1387336496273
aF308.13653923391655
aF308.13579158611867
aF308.1345453858936
aF308.1333334205286
aF308.1342056677993
aF308.1292544397782
aF308.13092056681614
aF308.12720522527553
aF308.12647250466523
aF308.12506335737174
aF308.12575419649716
aF308.12177636580515
aF308.1207921392763
aF308.11922351630824
aF308.12032551332277
aF308.11885386729875
aF308.1156633743696
aF308.1136105090405
aF308.11314339881056
aF308.109856792076
aF308.10999953567875
aF308.1083997495857
aF308.10711062984603
aF308.1059198768486
aF308.1062560594539
aF308.1015625109223
aF308.10045127358035
aF308.0989018308312
aF308.0982565344829
aF308.09659904145593
aF308.09481069053436
aF308.09383846254144
aF308.0900514583207
aF308.0890887296621
aF308.0886516222114
aF308.08554728495295
aF308.0853132530303
aF308.08338716917405
aF308.08128035956616
aF308.07919024493856
aF308.0789676379994
aF308.0755175608898
aF308.0732766104545
aF308.07375273535706
aF308.0721654228458
aF308.0711722321795
aF308.06824881769177
aF308.06684887420175
aF308.0662562990984
aF308.0660583518645
aF308.06156480666664
aF308.0606431224893
aF308.058115478632
aF308.0587863832338
aF308.0557916016661
aF308.05436580125615
aF308.05375653328673
aF308.05139910772056
aF308.04901606069075
aF308.046443274596
aF308.04785001010646
aF308.0453359699825
aF308.0445709729094
aF308.04245557223743
aF308.04097246052237
aF308.03872793377127
aF308.03757098247564
aF308.03562200669865
aF308.0350272390349
aF308.0328266614785
aF308.0331291463734
aF308.03102444669605
aF308.0282918731067
aF308.02770304986757
aF308.02740624408005
aF308.023695220222
aF308.0228868459524
aF308.0217113508048
aF308.0219152775625
aF308.020089055895
aF308.01910381415763
aF308.01874614911725
aF308.0160509729522
aF308.01385556066276
aF308.01158161194286
aF308.01058155523043
aF308.0096538579801
aF308.00903030607407
aF308.0083277013986
aF308.0043142273801
aF308.0048257711454
aF308.0035440509914
aF308.00323146731495
aF307.99926478482865
aF307.9972052656509
aF307.9970478965291
aF307.99625331312313
aF307.9954196975457
aF307.99423349965195
aF307.9922721606334
aF307.9907071387556
aF307.98950580151796
aF307.9882849594784
aF307.98608654073064
aF307.9868012180612
aF307.98746579340803
aF307.98317738271913
aF307.9830260469793
aF307.9805391641164
aF307.98021334113844
aF307.9776169252405
aF307.97767969852663
aF307.9762595454712
aF307.97541237020334
aF307.97301621232896
aF307.9717569056469
aF307.9720040621284
aF307.96900309346876
aF307.96797223118375
aF307.96715119171654
aF307.9674170223684
aF307.968203633672
aF307.96334392509954
aF307.96302016466814
aF307.9628962314105
aF307.96175611701796
aF307.9601376882578
aF307.9575856141645
aF307.956203126198
aF307.95719658135584
aF307.956507573351
aF307.95395367909373
aF307.95308475433126
aF307.953635866107
aF307.95238164387007
aF307.9494057170094
aF307.9486699313595
aF307.9475729145779
aF307.94510887782195
aF307.94480528522706
aF307.94554387698673
aF307.9462468451196
aF307.9430617409705
aF307.94285365872054
aF307.9421536903054
aF307.9406650275015
aF307.9386851774873
aF307.93695428046084
aF307.93728568611965
aF307.9368238279024
aF307.933056997365
aF307.9339136595375
aF307.93293176071893
aF307.9312343647498
aF307.930726631529
aF307.9299634124206
aF307.9298375284585
aF307.92796675415923
aF307.92773155302905
aF307.92526130056507
aF307.9264611334641
aF307.9246410758505
aF307.9236210145336
aF307.9211578564095
aF307.9197551358017
aF307.9195216835564
aF307.91737634242673
aF307.91959300446206
aF307.9183986028674
aF307.916087319389
aF307.91497188113647
aF307.91692897012973
aF307.9133234653833
aF307.9125444145779
aF307.9124303903325
aF307.9121140344204
aF307.90991365958376
aF307.9096600241671
aF307.90799214304855
aF307.9080716290545
aF307.90597187798915
aF307.9059974912248
aF307.90412143366166
aF307.9038085672357
aF307.9033010340835
aF307.90292574115335
aF307.9017034251191
aF307.89988601503416
aF307.8993932418871
aF307.89850585185644
aF307.89950240251494
aF307.8979275072047
aF307.8953734167559
aF307.89397965108475
aF307.8955049110171
aF307.8924438809397
aF307.8940175098981
aF307.8927157991254
aF307.8917772820913
aF307.89110135266077
aF307.8909376544793
aF307.8896480535592
aF307.88899347415315
aF307.8877699359985
aF307.8855472398706
aF307.88781045228933
aF307.8855001928466
aF307.8858499369356
aF307.88555190581025
aF307.8819787199338
aF307.8816746505356
aF307.88279282473894
aF307.8816948600817
aF307.88052237711923
aF307.8797008052227
aF307.8776985444767
aF307.87811806222317
aF307.87619892407037
aF307.8753367007269
aF307.87555644585416
aF307.87255468522864
aF307.8737371407814
aF307.87212052963844
aF307.8737692613374
aF307.8725268376733
aF307.87016203067367
aF307.87022113933193
aF307.870308611696
aF307.86909689995133
aF307.86706386612644
aF307.86789043678914
aF307.86835263197514
aF307.86621320531884
aF307.8653682923684
aF307.8646490133011
aF307.86299431615265
aF307.86353578465645
aF307.86162589358025
aF307.860634787126
aF307.86123963350576
aF307.86087130313206
aF307.8609436712018
aF307.8586912278903
aF307.8570904315299
aF307.8570611272568
aF307.8579819358915
aF307.8562739458975
aF307.8545925399228
aF307.8545713659864
aF307.8550411611517
aF307.85377778187257
aF307.8536383022066
aF307.852740339889
aF307.85185661304695
aF307.852710879487
aF307.851581207927
aF307.8487408242275
aF307.8502656452275
aF307.848493028841
aF307.84752282909136
aF307.8486842659683
aF307.8475838603237
aF307.84659023235264
aF307.8448656239126
aF307.84523771759245
aF307.84460683952307
aF307.8438959115848
aF307.8444243669783
aF307.8415995561322
aF307.84118112581285
aF307.8415638213012
aF307.84116905559387
aF307.84115799926707
aF307.8402180696533
aF307.84043969069023
aF307.8390981704295
aF307.8370291419315
aF307.8376370057499
aF307.8358865130377
aF307.83617674743135
aF307.8364147491357
aF307.8336293461235
aF307.83619748984233
aF307.8328195855279
aF307.83244868813324
aF307.83177370352
aF307.83165031145904
aF307.83162768632445
aF307.83187779754616
aF307.83143868430807
aF307.82925608057803
aF307.82851696355766
aF307.8282889371513
aF307.82753103874666
aF307.826841786843
aF307.8258852401157
aF307.8255632316274
aF307.82551927922543
aF307.82687536260636
aF307.82414696608754
aF307.82408901161807
aF307.8235270639729
aF307.8222345092084
aF307.8234768630449
aF307.82256671081717
aF307.82349894308066
aF307.8209886888663
aF307.8217721164875
aF307.81900547888523
aF307.8222260205489
aF307.8189771901449
aF307.8181361544955
aF307.8183935715104
aF307.8189441483199
aF307.8181571841966
aF307.81671259116445
aF307.81621669711205
aF307.8145821976346
aF307.8152116955959
aF307.81561724405765
aF307.81290335052734
aF307.81362603744475
aF307.8129127572758
aF307.81265418357157
aF307.812675388718
aF307.8110218583354
aF307.8112132926937
aF307.8104853806701
aF307.8078065806893
aF307.8091836240978
aF307.80861873486555
aF307.8077092174533
aF307.80798309041137
aF307.8077338720584
aF307.8063600979666
aF307.8074939540765
aF307.8051730902832
aF307.8027607099211
aF307.8049448587666
aF307.80517172949595
aF307.80566516504933
aF307.802888775158
aF307.80297432016147
aF307.80146289196404
aF307.8024153712436
aF307.80105810491705
aF307.8013462607825
aF307.80154847596793
aF307.80095176606756
aF307.7999922568981
aF307.7978909552499
aF307.79906679739963
aF307.7982691570121
aF307.7989320600059
aF307.7975625973989
aF307.79618012244384
aF307.7979241232033
aF307.79546418012075
aF307.79446467005533
aF307.7951571127486
aF307.7952617669473
aF307.7960556013879
aF307.79338298346505
aF307.7937614049929
aF307.79193068772156
aF307.79286872164124
aF307.79175427215165
aF307.79236315799415
aF307.7911873444441
aF307.7900851649461
aF307.79035472447134
aF307.79030282287056
aF307.7907746966536
aF307.79030053395707
aF307.78900003209174
aF307.7889065132127
aF307.78763600034046
aF307.78869608608056
aF307.7869446567166
aF307.7877485282091
aF307.785450265044
aF307.78651051442415
aF307.78375586061185
aF307.78473565684465
aF307.78416548905454
aF307.784132338952
aF307.78377162422674
aF307.78359251852993
aF307.78329299596066
aF307.78113906335165
aF307.78286996016385
aF307.78221836540087
aF307.7825444339934
aF307.77906937009016
aF307.7807433641425
aF307.78070377893386
aF307.77923131446556
aF307.7802967767382
aF307.7791357796232
aF307.77832990352556
aF307.77819666091864
aF307.77838531331884
aF307.7772074407458
aF307.775104149656
aF307.77532630800846
aF307.7751131449961
aF307.7741529767002
aF307.774431347917
aF307.7738028587483
aF307.7735574169001
aF307.7742531185244
aF307.77342180089505
aF307.77285739144963
aF307.7745197181164
aF307.77059462898785
aF307.77138657644355
aF307.7703902966699
aF307.77254006486964
aF307.7716262804947
aF307.77110978971336
aF307.76989816576133
aF307.7692665406729
aF307.76978386481767
aF307.7668914398329
aF307.7689534927469
aF307.76889665255965
aF307.76814677081745
aF307.76870908605366
aF307.7669281960006
aF307.7662038086628
aF307.7651239495299
aF307.7681139356279
aF307.7655851078063
aF307.76514436056283
aF307.76671795913666
aF307.7641433918321
aF307.7648192788134
aF307.7638977401364
aF307.76369770839676
aF307.7635183482202
aF307.76226859176256
aF307.76107381906036
aF307.76022910744746
aF307.7620103859961
aF307.7613685033147
aF307.7588871920818
aF307.7594761392472
aF307.7622291001208
aF307.760449434652
aF307.75943161050833
aF307.7618990993088
aF307.75903895730056
aF307.7571161257009
aF307.76056338370734
aF307.7581997140551
aF307.757678351404
aF307.7573732761114
aF307.75704615854823
aF307.756797395022
aF307.755314543726
aF307.75668065645266
aF307.7554468492509
aF307.7536064017826
aF307.7542655712278
aF307.75437357669153
aF307.75543113434554
aF307.7522443254398
aF307.75276651761544
aF307.7525282846263
aF307.7529246217157
aF307.75190533124345
aF307.7528369122134
aF307.75175773943425
aF307.75097437613033
aF307.7525418142018
aF307.74915967391684
aF307.75221046240017
aF307.74882212795046
aF307.7498201004916
aF307.7481295983804
aF307.748811902547
aF307.7499433378143
aF307.7483472970245
aF307.7482175309852
aF307.74890337992656
aF307.74705886345953
aF307.7467590483569
aF307.74640151334194
aF307.74558840177104
aF307.74777847136227
aF307.74670136186614
aF307.74570903466423
aF307.7461846602293
aF307.74525080854676
aF307.74482167050047
aF307.74437654554276
aF307.7447632552802
aF307.74406938152
aF307.7438100719462
aF307.74228770203086
aF307.7429934044994
aF307.74238568773893
aF307.7425994778401
aF307.74187812911606
aF307.74159246366725
aF307.7420540791379
aF307.7418761459955
aF307.7410567026443
aF307.74041539491293
aF307.7385360840747
aF307.74044660928604
aF307.73996238507965
aF307.740926541661
aF307.7381682687752
aF307.7393813235692
aF307.7384445083468
aF307.73821461549045
aF307.73827547914357
aF307.737792287708
aF307.7361893887846
aF307.7358938756112
aF307.7365324183013
aF307.73589995563395
aF307.73669821586424
aF307.7361902401135
aF307.7353815988005
aF307.73511470052955
aF307.73517665711046
aF307.73444996153455
aF307.7336840011715
aF307.73620503153893
aF307.7326918591133
aF307.73424053355893
aF307.7321109524892
aF307.7337113997082
aF307.7315817303313
aF307.73128655214975
aF307.7317710702498
aF307.7324051642553
aF307.7320687065238
aF307.73148043935794
aF307.73085505067746
aF307.7313507431459
aF307.73048361594954
aF307.72929943120545
aF307.7297360456457
aF307.73030979888694
aF307.72939131383913
aF307.7274670069997
aF307.7301292669171
aF307.7275666488046
aF307.72863685052715
aF307.7274613684759
aF307.72838364043605
aF307.7263116019281
aF307.72856945429345
aF307.72862176447256
aF307.72497069280143
aF307.7265113151461
aF307.72547555123236
aF307.7267635924864
aF307.72423783784586
aF307.7260777894611
aF307.7241375006829
aF307.7252917854259
aF307.7260870018838
aF307.72488737477875
aF307.7244186027587
aF307.72311595528873
aF307.72083704842396
aF307.72291127580434
aF307.7211266449879
aF307.72458953451525
aF307.72497680989585
aF307.72239853800517
aF307.72328012310965
aF307.7208223556275
aF307.72173640037977
aF307.7205714554671
aF307.72028676969904
aF307.7222599719327
aF307.7198456960688
aF307.72152982024124
aF307.7182811161349
aF307.71945014498334
aF307.72168365621934
aF307.7184974594834
aF307.7201532403367
aF307.7180804799239
aF307.7194326439625
aF307.7200680580952
aF307.71620419659797
aF307.7182612461494
aF307.7169835584132
aF307.71740871123535
aF307.71681362554676
aF307.7149304883769
aF307.7161915231982
aF307.71520623253963
aF307.7170350460689
aF307.7186687793545
aF307.7148097521087
aF307.7141906796794
aF307.7158293787727
aF307.71399567936874
aF307.71348539022307
aF307.7148015018242
aF307.71408590262746
aF307.713946410507
aF307.71321269627913
aF307.71249441825853
aF307.71238852092966
aF307.7114463653211
aF307.7125153617078
aF307.7123283115937
aF307.7108182331289
aF307.7114227101107
aF307.7116856531873
aF307.7116766911896
aF307.7116892071801
aF307.711174156616
aF307.71012682836556
aF307.710055006789
aF307.71149121397997
aF307.7083884360079
aF307.7101001911029
aF307.70960115079845
aF307.7080814266743
aF307.7093076987882
aF307.7073449150126
aF307.70794215492447
aF307.7083765135507
aF307.70733427880594
aF307.70677060308833
aF307.70772178057393
aF307.70778690177036
aF307.70784325392236
aF307.70542299190294
aF307.70653130345
aF307.70681249237794
aF307.7070491880046
aF307.70499601569554
aF307.70478650939026
aF307.7045493422619
aF307.7056254659483
aF307.7045503648781
aF307.7046425595968
aF307.7034397885532
aF307.70476198506907
aF307.7031900102013
aF307.702796681523
aF307.7036951889944
aF307.70352800468044
aF307.70226385198004
aF307.70344303579515
aF307.7040190121352
aF307.70240473350236
aF307.7025699103662
aF307.70198475286105
aF307.70188658227016
aF307.70118452574394
aF307.70191733748885
aF307.70160971749505
aF307.70121789194917
aF307.7009874128776
aF307.7005656118587
aF307.6997326485385
aF307.7034009401946
aF307.7009373966527
aF307.70009533845416
aF307.69660476068566
aF307.69713982513707
aF307.6985083216217
aF307.69846406369226
aF307.6988252439988
aF307.6978818094885
aF307.6990600802299
aF307.69847199972145
aF307.6999440934742
aF307.697008094957
aF307.6974856350246
aF307.6948263468747
aF307.6975805573953
aF307.69754867095133
aF307.69631746891406
aF307.6941417081184
aF307.69676676963155
aF307.69506226903997
aF307.6960885062813
aF307.695066181605
aF307.6964127511972
aF307.6947876833838
aF307.69573489423294
aF307.6944841935719
aF307.69540151633055
aF307.6924841542565
aF307.6948790492556
aF307.692233445563
aF307.69253262500933
aF307.69316013081414
aF307.69443518683926
aF307.6920019695252
aF307.69419270823437
aF307.692985263878
aF307.69322901626714
aF307.6932932706946
aF307.6920534456889
aF307.6905974137842
aF307.69034063067744
aF307.69099657943275
aF307.68956241018554
aF307.69135404988145
aF307.68995860374577
aF307.6910553492463
aF307.6895411668475
aF307.6919711980171
aF307.68917495070434
aF307.68889379259275
aF307.6913343496662
aF307.6888222148276
aF307.6882552921712
aF307.68788933447416
aF307.6897009479451
aF307.6901690587022
aF307.6877220803724
aF307.6873935356613
aF307.68911236421195
aF307.68863621987373
aF307.6879333675668
aF307.68735446036993
aF307.6866189722752
aF307.68754639010814
aF307.68637097020456
aF307.6863056088967
aF307.6888600532114
aF307.6854952182883
aF307.6869969143701
aF307.6875629216014
aF307.6839009401997
aF307.68520834059757
aF307.68536880215953
aF307.6832505249113
aF307.68396401091195
aF307.6829536351435
aF307.68509991952135
aF307.6854819795163
aF307.6832950050194
aF307.68441109843195
aF307.6840539307908
aF307.68194200727834
aF307.6838008986739
aF307.6813607097783
aF307.68299542937353
aF307.68242941467753
aF307.68284516523767
aF307.6814664535223
aF307.6843522156219
aF307.6810242852725
aF307.68234219115396
aF307.6803976762447
aF307.6818072128148
aF307.6788454464315
aF307.68036446349333
aF307.68105336016663
aF307.67979891480456
aF307.6824094035567
aF307.677432851357
aF307.68072747507495
aF307.68085067853565
aF307.6803096912387
aF307.68028363167775
aF307.67809135468474
aF307.6801599714404
aF307.6793220669181
aF307.67854017591003
aF307.67992393594903
aF307.67752715836514
aF307.6769777815205
aF307.6794470130062
aF307.6788005480206
aF307.6773258662898
aF307.67750297673666
aF307.67602539358734
aF307.67887299899104
aF307.6774368380334
aF307.67721521163656
aF307.677143966231
aF307.67729215783993
aF307.67762743604203
aF307.6762246081658
aF307.6761825891366
aF307.67653712462493
aF307.67609649267837
aF307.6765979213891
aF307.6755240382704
aF307.6743216541934
aF307.67511613084895
aF307.6736579335952
aF307.67493438385236
aF307.6731840877845
aF307.6743611260729
aF307.6745043792555
aF307.6749887517538
aF307.6732868466992
aF307.67561854398554
aF307.6737926460806
aF307.6740760001666
aF307.67364777742864
aF307.67365568089747
aF307.67283927843283
aF307.67159708685455
aF307.6714311401181
aF307.6722038771419
aF307.67131368653145
aF307.6717804612075
aF307.6725931753965
aF307.67080412293416
aF307.67095542718647
aF307.6704311034998
aF307.67042028055573
aF307.67025995163635
aF307.67071725621565
aF307.6707906891846
aF307.6710441272214
aF307.66964387820417
aF307.67091767976893
aF307.6713954570937
aF307.6716923058409
aF307.66912064389555
aF307.6684089056188
aF307.66892871441263
aF307.66845499870095
aF307.6695612652721
aF307.6692675933773
aF307.66751181129246
aF307.6688011442763
aF307.6687757176175
aF307.6681896251314
aF307.6679591286992
aF307.6686300381424
aF307.6682453677423
aF307.6692456999226
aF307.66618009986837
aF307.6668414287837
aF307.666398994181
aF307.6665284150013
aF307.66603714443914
aF307.665699647265
aF307.6656620579898
aF307.6652799025921
aF307.666190606444
aF307.6677801369297
aF307.665562098363
aF307.6668450486825
aF307.66604713422635
aF307.6648200878319
aF307.66683710356415
aF307.6637277351736
aF307.665611119081
aF307.66470763549984
aF307.66435149724515
aF307.66486970158456
aF307.6621149018359
aF307.6645301126669
aF307.66354798942837
aF307.66311605760484
aF307.66310740802913
aF307.66334284825166
aF307.6632911197991
aF307.66409709170716
aF307.6643404354628
aF307.6613719140765
aF307.6628248836398
aF307.663236162017
aF307.66142173726956
aF307.66263497286013
aF307.66189144849125
aF307.6624892721999
aF307.6610610666442
aF307.6623165720536
aF307.6611618041225
aF307.6604658614776
aF307.66223884007985
aF307.6614119777452
aF307.660847572351
aF307.6616206148592
aF307.65979271175735
aF307.6616376944642
aF307.658835591084
aF307.6591397259962
aF307.6590449730839
aF307.66008143181637
aF307.6591941723652
aF307.6583613701956
aF307.6587562088656
aF307.66036077404084
aF307.6581555535994
aF307.6593216911734
aF307.6600062452298
aF307.6580318476223
aF307.65856195107983
aF307.6579831643248
aF307.6568427742
aF307.65766526591756
aF307.6579754586076
aF307.65766273765666
aF307.657628601952
aF307.65677386563095
aF307.65728344549973
aF307.6556933410535
aF307.65699289445035
aF307.65779210841015
aF307.6568681443347
aF307.6571454007438
aF307.65635325086447
aF307.65487508251573
aF307.65542329074754
aF307.6556304045034
aF307.65688965001254
aF307.657083266981
aF307.65572021320423
aF307.6550208062661
aF307.65466387371566
aF307.6555113636427
aF307.65541512969344
aF307.65713335845425
aF307.6551766997795
aF307.6534800330963
aF307.6537282218894
aF307.6549819619073
aF307.6539883495283
aF307.65625865518814
aF307.6527014093605
aF307.6528817000994
aF307.6521811321749
aF307.6528761050445
aF307.6535507624269
aF307.65199129998496
aF307.65324036936204
aF307.6528275623099
aF307.6524647506197
aF307.6522470039009
aF307.65135062076723
aF307.650915027435
aF307.6538523917981
aF307.65221870044167
aF307.65240760114546
aF307.6529233965097
aF307.64996953271736
aF307.6524964365869
aF307.6516611561214
aF307.65038448485035
aF307.6501040713811
aF307.65017917762395
aF307.6516710809684
aF307.64996506818
aF307.65110189755296
aF307.65162408270754
aF307.65125916513847
aF307.64829097996073
aF307.65071621344117
aF307.6488027278148
aF307.65090087390377
aF307.64819087653876
aF307.650866090833
aF307.64983434281345
aF307.6479122916142
aF307.6489776211356
aF307.6488361647815
aF307.64871030276385
aF307.64881740012396
aF307.6491479301894
aF307.64896127878245
aF307.64754955912707
aF307.64963648455
aF307.64760166156344
aF307.6484153833504
aF307.64482654081246
aF307.648175722354
aF307.6453786380149
aF307.64916042709973
aF307.64666761249634
aF307.6466458612544
aF307.6478843089635
aF307.64666051758786
aF307.6468461344873
aF307.64660827792073
aF307.64729382698914
aF307.64540543396487
aF307.6467742975088
aF307.64495994474026
aF307.6453216904497
aF307.64516358521206
aF307.64638069939014
aF307.64524489084846
aF307.64382223521784
aF307.64548820458765
aF307.6444204994645
aF307.64556760469037
aF307.64507854034383
aF307.6451670196862
aF307.64515001743285
aF307.6458768209442
aF307.6451532853132
aF307.6436946687027
aF307.6439918877626
aF307.6456660319209
aF307.64514350187386
aF307.643504957237
aF307.64488041484935
aF307.6444815089061
aF307.64237042830825
aF307.64318922596476
aF307.64523340867305
aF307.6427616076629
aF307.64278451862054
aF307.64144879535775
aF307.6427978084981
aF307.64521072297254
aF307.6442560109855
aF307.6434194118418
aF307.64258664609804
aF307.64164994494934
aF307.6421583060882
aF307.6412489095157
aF307.64164729347084
aF307.642119466704
aF307.6428064646617
aF307.6421472802988
aF307.64233578308983
aF307.64108731524027
aF307.6400386187372
aF307.6415091777419
aF307.6396743179298
aF307.6418903077743
aF307.64011561019345
aF307.6414379441835
aF307.6417733819067
aF307.6410752531163
aF307.6389643106242
aF307.64037474679253
aF307.63995229627557
aF307.6413802612688
aF307.6399922820203
aF307.6399986493836
aF307.63903741852937
aF307.63837129167763
aF307.6389510859783
aF307.6394647158524
aF307.6396229141566
aF307.6366235732815
aF307.6383967402492
aF307.6379807840215
aF307.6379020947476
aF307.6381812220093
aF307.6379100544656
aF307.6384329718632
aF307.6373269075329
aF307.63751660480597
aF307.6377091780262
aF307.6372072055408
aF307.63742817050974
aF307.636324370451
aF307.6362148828072
aF307.6373398973761
aF307.6383586777621
aF307.63671677485155
aF307.63696142522
aF307.6366901641532
aF307.63536727939874
aF307.63632750855186
aF307.6367975063448
aF307.63678384732845
aF307.63657683379694
aF307.6356527509333
aF307.634919544325
aF307.63584513546317
aF307.6356162702918
aF307.6349385229629
aF307.6335402526293
aF307.6339344581455
aF307.63591255709235
aF307.6360091313882
aF307.6343414389839
aF307.6340174536002
aF307.63603180885684
aF307.63442266542853
aF307.6349280025472
aF307.63633342801285
aF307.63367909503097
aF307.63207675121646
aF307.63471823286943
aF307.6333158153304
aF307.6343386651505
aF307.63188086569147
aF307.6323177221217
aF307.63396824965935
aF307.6320881112175
aF307.6340212200395
aF307.63248720718127
aF307.6316649045364
aF307.63232349013873
aF307.6324382373384
aF307.6330414113989
aF307.6340273622442
aF307.6320328115012
aF307.6342312388067
aF307.6315001102573
aF307.6336938951462
aF307.63245982709276
aF307.6314423075253
aF307.6339480070048
aF307.6325185188327
aF307.6307248907763
aF307.6312957906699
aF307.63250967051084
aF307.6300978065054
aF307.6319012165422
aF307.6303134212787
aF307.63075987342455
aF307.6285632475998
aF307.6301396449291
aF307.6287977360301
aF307.62933726231506
aF307.6308835956369
aF307.6311055528728
aF307.6289673791509
aF307.6308073429911
aF307.63046658116025
aF307.62924527726807
aF307.6295386353926
aF307.62869917825685
aF307.62973624881545
aF307.6286793228677
aF307.62904631985003
aF307.6296278959749
aF307.6278155182169
aF307.6298844697751
aF307.62953063779366
aF307.6280925963196
aF307.6274216152528
aF307.62965956567234
aF307.62788494745274
aF307.6277084476073
aF307.63114226594587
aF307.6295320243031
aF307.62748771376107
aF307.62741229735286
aF307.628052195498
aF307.62759043022817
aF307.627110478556
aF307.62795792409344
aF307.62630664331834
aF307.6277054173095
aF307.6272373910786
aF307.62577038508067
aF307.62860402474814
aF307.6283464021682
aF307.6274476988169
aF307.62902188728066
aF307.6266405280677
aF307.6236812506017
aF307.6262788795906
aF307.62602121589543
aF307.62681591986797
aF307.6263087602982
aF307.62652927215476
aF307.6257047580369
aF307.62441378094775
aF307.62617278163805
aF307.62688139086464
aF307.6251638436689
aF307.62475749110735
aF307.62563969032317
aF307.6235091380194
aF307.62473787707836
aF307.6249979421629
aF307.62415963427185
aF307.62434667018994
aF307.62329642738155
aF307.6257210503341
aF307.6234387753322
aF307.6219011737588
aF307.62333185631155
aF307.6258442373549
aF307.6220591329301
aF307.62257896306454
aF307.62428524044947
aF307.6243035538262
aF307.6241485530105
aF307.6235062628194
aF307.6237556277301
aF307.62242117118177
aF307.6230887721843
aF307.6218702938518
aF307.6236463755746
aF307.6231309681839
aF307.62217633324565
aF307.6225965842765
aF307.62298636999645
aF307.6205821280492
aF307.62126205860574
aF307.6217618626152
aF307.62344429973666
aF307.62177129198824
aF307.62122956306723
aF307.6219043357082
aF307.61968368181016
aF307.6209166299347
aF307.6202842589976
aF307.6206528119015
aF307.6208422736672
aF307.6220528216469
aF307.6212400659551
aF307.6215394878433
aF307.62061627666975
aF307.62047082613304
aF307.6203423038053
aF307.62045247755054
aF307.61952689213484
aF307.62066819447637
aF307.6209667607984
aF307.61717259069746
aF307.622036892206
aF307.61977286096516
aF307.62008325956225
aF307.61810909754854
aF307.62031929127346
aF307.6188267663637
aF307.6198889857634
aF307.61918475680426
aF307.61919960758667
aF307.61849906661644
aF307.62005554866823
aF307.62133734256264
aF307.6167916541235
aF307.6196295928873
aF307.62105300350487
aF307.6188604476234
aF307.6195786824009
aF307.6182306452444
aF307.6203059261554
aF307.6174475737958
aF307.6171190438305
aF307.6190881956334
aF307.61812759419115
aF307.62035339330765
aF307.61573364175473
aF307.6174073700528
aF307.6158921627852
aF307.6165053184773
aF307.6168224702201
aF307.6183509981168
aF307.61757600345953
aF307.6169974273215
aF307.61664206187703
aF307.61695279697904
aF307.61831772337047
aF307.6169705423904
aF307.6191378105238
aF307.61620753206904
aF307.6158282678889
aF307.6163501160668
aF307.61633484390694
aF307.61712809830743
aF307.61500921312086
aF307.6167436052277
aF307.61660251908035
aF307.6173315954271
aF307.61665416735656
aF307.61798365259074
aF307.6172455597736
aF307.6162817007404
aF307.61468930629763
aF307.61609734254233
aF307.6155789241012
aF307.61682091140113
aF307.61407406135936
aF307.6152093243173
aF307.6155988103305
aF307.61601020122305
aF307.6128224794582
aF307.6141656008832
aF307.6144303451102
aF307.6141738370863
aF307.61275849687803
aF307.61418102331714
aF307.6140976630522
aF307.615593335007
aF307.61294978226516
aF307.61517045005706
aF307.6132264391038
aF307.6135325986891
aF307.61402819603353
aF307.61311307161276
aF307.6141366309943
aF307.6129071567873
aF307.6131293834454
aF307.61221470943144
aF307.6131905309845
aF307.6144932294274
aF307.61307713225176
aF307.61330547691557
aF307.6138281905462
aF307.61104001400383
aF307.61246157820653
aF307.61311480193234
aF307.6121824083076
aF307.6136859614281
aF307.61328001677174
aF307.6112068692239
aF307.61118304311617
aF307.61200754615913
aF307.6106377116069
aF307.6122214816554
aF307.61130617063714
aF307.61165146312334
aF307.6111720963149
aF307.61149819137523
aF307.6106720446534
aF307.61179227690775
aF307.61212183212
aF307.6107044372048
aF307.6089148912245
aF307.6112331677231
aF307.60963878651677
aF307.61036052597274
aF307.61109891340266
aF307.6124937501012
aF307.61115093360087
aF307.6103981567467
aF307.61074462605256
aF307.6100905453207
aF307.6109118555599
aF307.60934972049097
aF307.60993093091963
aF307.6097186949297
aF307.60822934588583
aF307.61071195899353
aF307.6092299961384
aF307.60954197304875
aF307.60859296441106
aF307.6100711911207
aF307.60963946310807
aF307.6095313621741
aF307.60856189654174
aF307.6102725160925
aF307.60858926136416
aF307.6075655142197
aF307.6079061142442
aF307.60959783710115
aF307.6089674639831
aF307.60686149930365
aF307.61045324140633
aF307.6073209673146
aF307.60799019933796
aF307.6082846423633
aF307.6093008761324
aF307.609278598801
aF307.6077392981169
aF307.60693167538017
aF307.60702382661873
aF307.6072033348176
aF307.6065836873351
aF307.6063257363688
aF307.6059056422503
aF307.60680428174936
aF307.60759241989564
aF307.6082780143689
aF307.60766114154063
aF307.6053507675679
aF307.6062043316887
aF307.60662721685327
aF307.60727781286323
aF307.60765219190966
aF307.6063267398364
aF307.6055760105776
aF307.60504136478295
aF307.606820510549
aF307.6069251078622
aF307.6059051447219
aF307.6074492410239
aF307.60577564180545
aF307.60477615727245
aF307.6041985000099
aF307.60585930912873
aF307.6052483397946
aF307.60536182935624
aF307.6048010055881
aF307.60400264215895
aF307.60770835430964
aF307.6057774485503
aF307.6043540888352
aF307.6034419852629
aF307.6053199088397
aF307.60590384890673
aF307.6052362855312
aF307.6056187176751
aF307.6054097448588
aF307.6039211491271
aF307.60433546144037
aF307.6045155262534
aF307.6030884344376
aF307.60486890330486
aF307.60537479703856
aF307.6027276758744
aF307.6023765187413
aF307.6037624034924
aF307.6033766214372
aF307.60338188917166
aF307.60323465225815
aF307.60320198786195
aF307.60527314061153
aF307.6001551819882
aF307.6027509011579
aF307.60341345962246
aF307.60250741211087
aF307.60436868311575
aF307.6033124517744
aF307.6017119935449
aF307.60274978791085
aF307.6015306971234
aF307.60228233909567
aF307.60122690765263
aF307.60280200134264
aF307.60535310318585
aF307.60145905401436
aF307.6012090674179
aF307.6019498521394
aF307.6027155733849
aF307.6006026420315
aF307.602723052375
aF307.60254704966246
aF307.60405147393743
aF307.6020059636311
aF307.6032453817994
aF307.6015160997446
aF307.60100092064846
aF307.6003074364454
aF307.60315074875166
aF307.60088219142864
aF307.6003971570834
aF307.6007956731859
aF307.600988920268
aF307.60017252516917
aF307.6007554503456
aF307.6007501018874
aF307.60057820513725
aF307.60060073003945
aF307.6005566159917
aF307.59791818225756
aF307.5995139485381
aF307.59958126232897
aF307.59923706722776
aF307.5989678232524
aF307.60091221577665
aF307.59980349800645
aF307.599783919567
aF307.60028505362584
aF307.5990972475389
aF307.60043882621665
aF307.5997057464842
aF307.59829927219624
aF307.59886391316417
aF307.59745481856623
aF307.59868730217903
aF307.5986118306168
aF307.5995166314893
aF307.59892007987565
aF307.59900618365504
aF307.59706228848086
aF307.59672418958945
aF307.59992313737934
aF307.5986203416222
aF307.59809990040094
aF307.5987745359104
aF307.59994598885027
aF307.59795805971703
aF307.5973289071357
aF307.5979028149909
aF307.5975300441279
aF307.5975811353876
aF307.5986956611996
aF307.5990468531744
aF307.5982663906675
aF307.5964432961543
aF307.5975371528318
aF307.5974860472733
aF307.59702586157107
aF307.5983962462613
aF307.59767312697653
aF307.59591059843046
aF307.59849167802633
aF307.5982766678469
aF307.5976457918953
aF307.5966606808063
aF307.5960392040527
aF307.5959543502945
aF307.5964260722007
aF307.5962158164319
aF307.59570262986534
aF307.59689830612535
aF307.5963406555619
aF307.59607523004723
aF307.59561504958566
aF307.5945984302729
aF307.5954392797661
aF307.59705165664013
aF307.59510442980195
aF307.5957252736128
aF307.595084899267
aF307.59474865434964
aF307.59493954439415
aF307.5968842251374
aF307.59531189971847
aF307.59549706433205
aF307.59565511587607
aF307.59578389847627
aF307.5962843107096
aF307.5966278947392
aF307.5961246737076
aF307.59497380386057
aF307.59593087882877
aF307.59279596312325
aF307.59464991034247
aF307.59493238672115
aF307.59584834009144
aF307.596300835832
aF307.59395236964775
aF307.596030213499
aF307.5927925435928
aF307.59410327258615
aF307.59515601231925
aF307.5959827352354
aF307.5954400897371
aF307.5914209681495
aF307.5947755192989
aF307.5933312844162
aF307.59359490200495
aF307.59422951181784
aF307.5947253583953
aF307.59283378564174
aF307.5937754214097
aF307.59161031751603
aF307.5939652898739
aF307.5944041372182
aF307.5938300995609
aF307.59375434570165
aF307.5917764932879
aF307.5935666355108
aF307.59155749718985
aF307.59165285681246
aF307.59321459107395
aF307.5931988847473
aF307.5922815096505
aF307.59177799344485
aF307.59374578013785
aF307.59372921579285
aF307.59347338559684
aF307.5950758246176
aF307.5891098797411
aF307.5935593169256
aF307.59289521694683
aF307.5912252523089
aF307.5930427486707
aF307.5920634575326
aF307.59315976354645
aF307.5895858593489
aF307.5910281359271
aF307.59159496578303
aF307.5927650507252
aF307.5908410348223
aF307.5930271724193
aF307.59302507167814
aF307.5914494463387
aF307.59116140215724
aF307.5917020579464
aF307.5922153980501
aF307.59260520689025
aF307.5921989308567
aF307.5920787577108
aF307.5926364388432
aF307.59205504276713
aF307.5905659360641
aF307.58994184082184
aF307.59225735840454
aF307.5894723774658
aF307.59018831264916
aF307.5910392704399
aF307.5909934133637
aF307.59145117073456
aF307.59042851055307
aF307.59017935741355
aF307.5899098916692
aF307.59131533480956
aF307.5903735952804
aF307.5886794720784
aF307.5900214740791
aF307.5905288572798
aF307.5894925533905
aF307.5886710522734
aF307.58933793280494
aF307.5893851291856
aF307.58910176854107
aF307.5880294736199
aF307.59043386812704
aF307.58801122272774
aF307.5894005665131
aF307.5878664009852
aF307.5888692124347
aF307.59119784863924
aF307.58829268961506
aF307.58821914351574
aF307.5888535317905
aF307.588337137132
aF307.58669327499223
aF307.5884328791495
aF307.58785823870056
aF307.58997695350945
aF307.5877192550288
aF307.58924865075977
aF307.5883962743491
aF307.5878990768203
aF307.5874140716827
aF307.588147379922
aF307.5890833414678
aF307.58704153505784
aF307.5880882738471
aF307.58697558818426
aF307.5892901742588
aF307.58774383824345
aF307.5879680026466
aF307.5873238276033
aF307.5879257609625
aF307.5881823378596
aF307.5879193550838
aF307.5874264176616
aF307.58805190709217
aF307.58663015860327
aF307.58691602215407
aF307.58721708737437
aF307.58681833209533
aF307.58586476667034
aF307.58815649639536
aF307.5867383972209
aF307.5864904390637
aF307.58531168787124
aF307.58677890390493
aF307.5854581394012
aF307.5857974457034
aF307.5862286753672
aF307.588082902209
aF307.586165900683
aF307.5860333636339
aF307.58740247846174
aF307.5858148526087
aF307.5849773717623
aF307.58509682105097
aF307.58715995610225
aF307.58585531014165
aF307.58547754315845
aF307.585450440242
aF307.58493038970164
aF307.58489416690816
aF307.58641918280574
aF307.58490458677403
aF307.5872275393375
aF307.585073458386
aF307.5866806553343
aF307.58515458718324
aF307.58382367347417
aF307.5837540746225
aF307.58577056831587
aF307.5829411203175
aF307.5861748480134
aF307.5848861720594
aF307.5852222459653
aF307.58565841890504
aF307.5844896952238
aF307.58376653288724
aF307.586784953892
aF307.584863348963
aF307.58420310040333
aF307.5864481883755
aF307.58323671641483
aF307.5839745209879
aF307.58568818979415
aF307.5840688042061
aF307.58293998423403
aF307.5826891447695
aF307.583083440633
aF307.5837677507495
aF307.58511146952907
aF307.5817519005713
aF307.5828402032463
aF307.5816110669897
aF307.58383567477324
aF307.583395448233
aF307.5841186814276
aF307.58314779118274
aF307.582477311279
aF307.58233521376883
aF307.5832250708858
aF307.5845664582666
aF307.5832761886324
aF307.58371127306987
aF307.58254102700835
aF307.5843829643103
aF307.58166295382426
aF307.58308718785537
aF307.5828097755136
aF307.5830421939772
aF307.5812360865704
aF307.58464384926066
aF307.5828213113826
aF307.58207838771386
aF307.58334029939357
aF307.5830796855058
aF307.58301534125474
aF307.58164285955183
aF307.5823408519015
aF307.58158015849745
aF307.58255035746186
aF307.5819069104874
aF307.5818789468928
aF307.5811878367311
aF307.5811871998276
aF307.58019345885714
aF307.5811866154149
aF307.5807378108961
aF307.5818606230952
aF307.5798336174621
aF307.5814644409989
aF307.5826940916399
aF307.5819858402643
aF307.58115768688924
aF307.5805378512943
aF307.58006737754465
aF307.57979708033827
aF307.58032808280103
aF307.5797897038454
aF307.580262476831
aF307.5801564800624
aF307.58074829343747
aF307.580738755631
aF307.58163407142865
aF307.5810447740057
aF307.58164286652635
aF307.57970896846194
aF307.58157100363195
aF307.5793607380915
aF307.58080303107215
aF307.5796516952428
aF307.57860184685103
aF307.58123015596766
aF307.58047021489176
aF307.5804502832619
aF307.58108021079283
aF307.5788099000531
aF307.5795948229316
aF307.57842425556356
aF307.58041469038704
aF307.57944012157526
aF307.579475939443
aF307.5804900023172
aF307.57882559299475
aF307.57872129882463
aF307.5782185575095
aF307.5793223265392
aF307.5792207288157
aF307.5801081712001
aF307.57957979113496
aF307.5790299940415
aF307.57949002482854
aF307.5779720856446
aF307.579432209859
aF307.5789840761918
aF307.5791793071726
aF307.57939717905145
aF307.5799533223315
aF307.5792004433966
aF307.57875512515716
aF307.5785596014058
aF307.5781179901481
aF307.5767745472992
aF307.57876364660217
aF307.5783607146368
aF307.5786069382677
aF307.57751398034463
aF307.57747335716084
aF307.5786152444674
aF307.5781688911664
aF307.5772350526909
aF307.5788289383359
aF307.57773960933395
aF307.5774133021278
aF307.57778759120083
aF307.5795636855915
aF307.5788709919239
aF307.57639797054736
aF307.57783720375625
aF307.57716375512643
aF307.5769184501156
aF307.5780446424561
aF307.57665333548033
aF307.5767923424959
aF307.57666160514054
aF307.57706111245005
aF307.577175307941
aF307.57577219565377
aF307.57605526957894
aF307.57681003300155
aF307.57780360325927
aF307.5778350125918
aF307.5748554587691
aF307.5755417465495
aF307.57715458279637
aF307.5754408852494
aF307.57758200934285
aF307.57458118834967
aF307.57659643318317
aF307.5769800055289
aF307.5759077802521
aF307.5771247783413
aF307.57479506637384
aF307.57498159997226
aF307.5749719469605
aF307.5749942978554
aF307.5762724605817
aF307.57713323074427
aF307.5763245241958
aF307.5766341763622
aF307.5754236948431
aF307.5750395718264
aF307.5760498398133
aF307.57416350531213
aF307.57433371710334
aF307.5767450608086
aF307.57617691263044
aF307.57491496222013
aF307.5758403130146
aF307.57563768337104
aF307.57593358691
aF307.57559178627025
aF307.5747227538362
aF307.57560016764796
aF307.57617000646036
aF307.5749673583289
aF307.5743310501388
aF307.5744868861891
aF307.57610916221233
aF307.5763879853614
aF307.5751070347707
aF307.5743825831735
aF307.57353442902905
aF307.5740446334304
aF307.5730262465825
aF307.57515651396164
aF307.57338520240666
aF307.5749016159275
aF307.5738379320917
aF307.57488611494546
aF307.5739237308133
aF307.5751689215975
aF307.5732177002068
aF307.57392446354044
aF307.5734875500017
aF307.5728122982673
aF307.57366030614264
aF307.57366703052156
aF307.57445736352696
aF307.5744007706547
aF307.573989554789
aF307.5735304650306
aF307.57294652206105
aF307.5730668481981
aF307.5721218079641
aF307.57281561798027
aF307.57422467425545
aF307.57229748648035
aF307.5720143267616
aF307.57130024280605
aF307.5729112542608
aF307.5730536014595
aF307.5744310849969
aF307.5735708182745
aF307.5721979524033
aF307.5731172691174
aF307.57406249967585
aF307.572097388431
aF307.5725073763014
aF307.5719258784588
aF307.57392405922
aF307.5731702101292
aF307.5727535201244
aF307.57251467041203
aF307.57172320203915
aF307.5734018263659
aF307.5711188997938
aF307.5722871060398
aF307.5720702170899
aF307.5716213187747
aF307.5718224360977
aF307.5689535732546
aF307.57267351031857
aF307.571718453322
aF307.57132574595005
aF307.570749946835
aF307.571266732591
aF307.5710589468391
aF307.5723029917649
aF307.5725610914475
aF307.5712906977196
aF307.56963572862026
aF307.57104834335894
aF307.5719900321729
aF307.57223072637845
aF307.5714356899291
aF307.5695137053942
aF307.5721392017011
aF307.5701505226912
aF307.5702610125074
aF307.57116692994424
aF307.5713574697612
aF307.57046042012007
aF307.56917382070066
aF307.56806273492543
aF307.5706821607464
aF307.57076446942534
aF307.5684659253974
aF307.5696836487473
aF307.56932851381
aF307.57226093256173
aF307.56978849558146
aF307.5699957725821
aF307.568990995774
aF307.5708362995003
aF307.56972075285734
aF307.57002879720204
aF307.57054111547467
aF307.5691950239602
aF307.569993762241
aF307.56965689774813
aF307.5690519918098
aF307.57066585666166
aF307.56984519548206
aF307.5698572489322
aF307.57001200191337
aF307.56995721192504
aF307.57013614853173
aF307.5690552913515
aF307.57087469323983
aF307.5694950645718
aF307.5712837513591
aF307.56954598243703
aF307.5684140814667
aF307.56738966552285
aF307.56813497967767
aF307.56947116147865
aF307.567866114265
a(lp2
F0.0
aF0.0
aF-3.128400611658458e-12
aF-3.776318624194463e-11
aF-2.0799496499663804e-10
aF-6.627207902006464e-10
aF-1.1347601977336684e-09
aF4.2326767827171295e-10
aF1.0378117756058981e-08
aF4.2982769878634434e-08
aF1.2437098010675074e-07
aF2.9595262880710027e-07
aF6.158814701795579e-07
aF1.1572169470539978e-06
aF2.001798578277435e-06
aF3.2299482078216726e-06
aF4.9074465595321584e-06
aF7.071561758082804e-06
aF9.716912413784603e-06
aF1.2780785132048732e-05
aF1.6127171868733102e-05
aF1.9529175695887264e-05
aF2.2650272387859652e-05
aF2.5026058401023466e-05
aF2.6049046425350195e-05
aF2.4958889145736558e-05
aF2.0838686427807267e-05
aF1.261561852602289e-05
aF-9.37413255474328e-07
aF-2.1202575411944222e-05
aF-4.972306684486617e-05
aF-8.821613825661315e-05
aF-0.0001385940782893937
aF-0.0002029929977911552
aF-0.00028380822313888257
aF-0.0003837344204709179
aF-0.0005058084281702959
aF-0.0006534530750699733
aF-0.0008305204789000289
aF-0.0010413329062085382
aF-0.0012907183364533111
aF-0.0015840371703889843
aF-0.0019271965612485836
aF-0.0023266493687381005
aF-0.002789375436425929
aF-0.0033228439830529206
aF-0.003934957486572275
aF-0.0046339790087181225
aF-0.005428445756862543
aF-0.006327071482097157
aF-0.007338639416500633
aF-0.008471886844973327
aF-0.009735382654343875
aF-0.011137399469511994
aF-0.012685781211975266
aF-0.014387805774217105
aF-0.01625004282722584
aF-0.018278209010835964
aF-0.020477025263211185
aF-0.022850082087378085
aF-0.02539971781659572
aF-0.028126913137538925
aF-0.031031203124231264
aF-0.03411060649775695
aF-0.03736157128807813
aF-0.040778936913761006
aF-0.04435591451763486
aF-0.04808408872733176
aF-0.05195344361568374
aF-0.05595241393175077
aF-0.06006796110921567
aF-0.06428567306857767
aF-0.06858988724297589
aF-0.07296383664419871
aF-0.07738981825674629
aF-0.0818493816055693
aF-0.08632353379300975
aF-0.090792956362909
aF-0.09523822920768035
aF-0.09964005714001052
aF-0.10397949530831482
aF-0.10823817016101758
aF-0.11239849301306695
aF-0.11644386292782762
aF-0.1203588544336977
aF-0.1241293845992647
aF-0.1277428544463188
aF-0.1311882613460291
aF-0.13445628056510522
aF-0.1375393150348168
aF-0.14043151364832732
aF-0.14312876047895082
aF-0.1456286391305344
aF-0.14793037666007378
aF-0.15003477043246724
aF-0.15194410016748588
aF-0.1536620270234733
aF-0.15519348181561723
aF-0.15654454519575892
aF-0.1577223231713578
aF-0.1587348207050379
aF-0.15959081429211483
aF-0.1602997227632173
aF-0.16087147538678437
aF-0.16131637755621242
aF-0.1616449759443971
aF-0.1618679260890055
aF-0.16199586551652215
aF-0.16203929477835613
aF-0.1620084675297227
aF-0.1619132895709934
aF-0.16176322621865935
aF-0.1615672177872453
aF-0.1613336038367616
aF-0.16107005738614058
aF-0.1607835304603955
aF-0.1604802124016124
aF-0.16016550191890824
aF-0.15984399240514255
aF-0.1595194682335225
aF-0.1591949087620062
aF-0.15887249719682583
aF-0.15855363320465696
aF-0.1582389507521158
aF-0.15792834502128886
aF-0.15762101296370137
aF-0.15731551046660838
aF-0.15700982611071196
aF-0.1567014689121721
aF-0.156387566464869
aF-0.15606497008136977
aF-0.15573036362545256
aF-0.15538037260520354
aF-0.15501167081899758
aF-0.15462108356187124
aF-0.15420568747982955
aF-0.15376290623795838
aF-0.15329059900382613
aF-0.15278713731084
aF-0.15225146625208985
aF-0.15168314769215543
aF-0.15108238508616795
aF-0.1504500306991541
aF-0.14978757621143401
aF-0.1490971268950173
aF-0.14838135841595732
aF-0.14764345528248377
aF-0.14688703181439203
aF-0.14611603922513597
aF-0.14533466426022912
aF-0.14454722513559645
aF-0.1437580696194014
aF-0.1429714786417217
aF-0.14219157753635084
aF-0.14142225646574877
aF-0.1406671015542009
aF-0.13992933810455396
aF-0.13921178682931726
aF-0.1385168334968033
aF-0.13784641147913876
aF-0.13720199497167648
aF-0.1365845989640088
aF-0.13599478207034987
aF-0.13543265031074933
aF-0.13489786206032528
aF-0.13438963523093575
aF-0.13390675797528184
aF-0.13344760487721546
aF-0.13301016115476588
aF-0.13259205651262831
aF-0.13219060807193306
aF-0.13180286996991475
aF-0.13142568676532587
aF-0.13105574806342657
aF-0.1306896421810059
aF-0.13032390765762145
aF-0.12995508315528342
aF-0.1295797578284444
aF-0.12919462455221442
aF-0.12879653707624683
aF-0.12838256940910286
aF-0.12795007269428424
aF-0.12749672345748006
aF-0.12702055829705272
aF-0.12651999280588086
aF-0.12599382528894595
aF-0.12544122814402792
aF-0.12486173130428949
aF-0.12425520231114123
aF-0.1236218264930377
aF-0.1229620894432681
aF-0.12227676315291905
aF-0.12156689636083196
aF-0.12083380863588614
aF-0.1200790867278489
aF-0.11930458101199114
aF-0.11851239939112054
aF-0.11770489606219606
aF-0.11688465334871495
aF-0.11605445596925137
aF-0.11521725795205472
aF-0.1143761428152668
aF-0.11353427831219119
aF-0.11269486845409517
aF-0.11186110698319805
aF-0.11103613667834233
aF-0.11022301717439754
aF-0.10942470093881117
aF-0.10864401426726591
aF-0.10788363920581849
aF-0.10714609325318723
aF-0.10643370520664568
aF-0.1057485867363069
aF-0.10509260040472232
aF-0.1044673258025605
aF-0.1038740257579605
aF-0.10331361443374024
aF-0.10278662919798012
aF-0.10229320839505307
aF-0.10183307707393853
aF-0.10140554227281354
aF-0.10100949889008379
aF-0.10064344660014407
aF-0.10030551752976494
aF-0.09999351338110607
aF-0.09970494967945388
aF-0.09943710450172658
aF-0.09918706970242289
aF-0.09895180363786452
aF-0.09872818461707011
aF-0.09851306357756896
aF-0.09830331394506958
aF-0.09809587746941067
aF-0.09788780655920899
aF-0.0976763045394807
aF-0.09745876448082771
aF-0.09723280559415445
aF-0.09699630488445607
aF-0.0967474214333808
aF-0.09648461125030999
aF-0.09620663160826931
aF-0.09591253480635427
aF-0.0956016524184985
aF-0.09527357230452693
aF-0.09492811145467414
aF-0.09456528741632589
aF-0.0941852896640829
aF-0.09378845088088535
aF-0.09337521789323183
aF-0.09294612314541033
aF-0.09250175896996156
aF-0.09204275696445596
aF-0.09156977333313886
aF-0.09108347962143966
aF-0.09058455817281089
aF-0.09007370252588545
aF-0.08955162368297906
aF-0.0890190631404177
aF-0.08847681298246148
aF-0.08792574260125152
aF-0.08736683089618162
aF-0.08680120198074796
aF-0.08623016118911198
aF-0.08565522672753521
aF-0.08507815169093048
aF-0.0845009322593942
aF-0.08392580017826226
aF-0.08335519967107874
aF-0.08279175013880684
aF-0.082238196758212
aF-0.08169735146310053
aF-0.08117202651823961
aF-0.08066496255625326
aF-0.08017875348394907
aF-0.0797157719132578
aF-0.07927809963633714
aF-0.07886746750229223
aF-0.07848520812606964
aF-0.07813222357626876
aF-0.07780896851926646
aF-0.07751544729057926
aF-0.07725122188927319
aF-0.07701542804520811
aF-0.07680679810211374
aF-0.07662369082189023
aF-0.07646412807084824
aF-0.07632583734452308
aF-0.07620629865194589
aF-0.07610279451468677
aF-0.07601246174077435
aF-0.07593234296897948
aF-0.07585943556302788
aF-0.0757907357834185
aF-0.07572327688305558
aF-0.07565416036424759
aF-0.07558058027279038
aF-0.07549984148569329
aF-0.07540937413420508
aF-0.07530674674574589
aF-0.07518968007166359
aF-0.0750560622970683
aF-0.0749039651294036
aF-0.07473165990138468
aF-0.07453763344943656
aF-0.07432060425883634
aF-0.07407953924565737
aF-0.07381367068578512
aF-0.0735225121532111
aF-0.07320587257545488
aF-0.07286386829162175
aF-0.07249693320300571
aF-0.07210582617326734
aF-0.07169163348444374
aF-0.07125576353766538
aF-0.07079993159361117
aF-0.07032613399085912
aF-0.06983661340845455
aF-0.06933381845820424
aF-0.06882036135748239
aF-0.06829897655760536
aF-0.06777248171668383
aF-0.0672437411723263
aF-0.06671563152593878
aF-0.06619100915751201
aF-0.06567268023398289
aF-0.06516337436769913
aF-0.06466572267064373
aF-0.06418223944316605
aF-0.06371530509248527
aF-0.06326714738066687
aF-0.06283981935542735
aF-0.062435174617725
aF-0.0620548424076424
aF-0.06170020543028858
aF-0.061372382753509556
aF-0.06107221923420553
aF-0.060800281906226945
aF-0.0605568623546867
aF-0.06034198263917985
aF-0.06015540182365377
aF-0.05999662116753941
aF-0.05986488775297823
aF-0.05975919741617786
aF-0.0596782976746254
aF-0.05962069033094591
aF-0.05958463265877483
aF-0.05956813643303919
aF-0.05956896546363329
aF-0.059584633650456666
aF-0.05961240598648539
aF-0.05964930466233913
aF-0.0596921222442916
aF-0.05973744365994064
aF-0.059781677726747
aF-0.05982109755169463
aF-0.059851888571454036
aF-0.059870203662211685
aF-0.05987222556419962
aF-0.05985423665309651
aF-0.0598126948612613
aF-0.05974431335208811
aF-0.05964614108267914
aF-0.05951564129180117
aF-0.05935076469526
aF-0.059150013974200895
aF-0.05891249652478167
aF-0.05863796348181817
aF-0.05832683442090671
aF-0.05798020844343569
aF-0.05759986296821256
aF-0.05718824110309416
aF-0.0567484273628259
aF-0.05628411062157427
aF-0.05579953301553206
aF-0.055299424008640595
aF-0.05478891994563837
aF-0.05427347113421053
aF-0.05375874027400605
aF-0.05325049653456835
aF-0.052754508000857035
aF-0.05227643294301932
aF-0.051821709808166395
aF-0.051395447509223514
aF-0.05100231971194133
aF-0.05064646755621306
aF-0.05033141437056632
aF-0.05005999432238087
aF-0.04983429544735759
aF-0.04965561673653036
aF-0.04952443932092298
aF-0.049440412917237136
aF-0.04940235933953242
aF-0.04940829410324956
aF-0.04945546545984164
aF-0.04954040895871527
aF-0.049659015445746454
aF-0.04980661076696828
aF-0.04997804580963018
aF-0.05016779575331815
aF-0.050370067135353226
aF-0.05057891011811152
aF-0.05078833185923936
aF-0.05099240662233462
aF-0.051185379699644575
aF-0.051361764159944326
aF-0.05151643041298108
aF-0.05164468826182982
aF-0.05174236028609568
aF-0.05180584503234948
aF-0.05183216885299935
aF-0.051819025711583845
aF-0.05176480410300197
aF-0.05166859952610654
aF-0.05153021067377692
aF-0.051350118447023675
aF-0.051129448741474286
aF-0.05086992161001424
aF-0.05057379008813128
aF-0.05024377181699961
aF-0.04988297629811069
aF-0.04949483062104573
aF-0.04908300674965798
aF-0.048651353536963524
aF-0.04820383612127727
aF-0.04774448403121676
aF-0.04727734754030437
aF-0.04680646031423007
aF-0.046335805773195446
aF-0.045869284949129396
aF-0.04541068453464406
aF-0.04496364450176193
aF-0.04453162469734008
aF-0.04411786985385562
aF-0.04372537331663819
aF-0.04335684101226486
aF-0.0430146575444853
aF-0.042700855606628674
aF-0.04241708907176862
aF-0.042164609894821646
aF-0.04194424929655885
aF-0.04175640413977182
aF-0.04160102963138911
aF-0.041477639721925814
aF-0.04138531715247433
aF-0.04132273555296599
aF-0.04128819542305088
aF-0.0412796741325624
aF-0.041294888066485035
aF-0.041331363416939174
aF-0.04138651104077987
aF-0.04145770021263752
aF-0.041542326102152374
aF-0.04163786652570131
aF-0.041741925016268965
aF-0.04185225945490116
aF-0.04196679783956666
aF-0.04208364395839329
aF-0.04220107498850346
aF-0.042317531355132866
aF-0.042431598514731717
aF-0.04254198145077558
aF-0.04264747459105238
aF-0.042746931174439985
aF-0.04283923619970434
aF-0.04292328595751725
aF-0.042997975083241935
aF-0.043062189990130104
aF-0.04311480664863022
aF-0.043154691406687526
aF-0.043180705116060016
aF-0.043191711768205576
aF-0.04318659223573714
aF-0.043164262208563196
aF-0.043123692438817515
aF-0.04306392948712262
aF-0.0429841158118369
aF-0.04288350880675706
aF-0.0427614990248229
aF-0.04261762810294756
aF-0.042451606930909325
aF-0.042263334816822797
aF-0.042052920857944605
aF-0.04182070870636745
aF-0.04156730472033571
aF-0.04129360766753808
aF-0.041000837009486334
aF-0.04069055647825354
aF-0.04036468912487487
aF-0.04002551924228143
aF-0.03967567680027246
aF-0.03931810186361035
aF-0.03895598926713276
aF-0.03859271659877929
aF-0.038231760266000704
aF-0.03787660469501952
aF-0.03753064936880745
aF-0.03719711831695343
aF-0.0368789765961538
aF-0.03657885774008604
aF-0.03629900516995864
aF-0.03604122942742383
aF-0.035806882126623626
aF-0.03559684696757374
aF-0.03541154764813224
aF-0.03525097134621869
aF-0.035114704892356394
aF-0.035001980093862795
aF-0.03491172533300144
aF-0.03484262139051744
aF-0.03479315936682246
aF-0.03476169788498482
aF-0.03474651638759983
aF-0.034745861713940424
aF-0.0347579860865302
aF-0.0347811757490804
aF-0.03481377048359443
aF-0.03485417502702314
aF-0.03490086410052603
aF-0.03495238339158356
aF-0.03500734907709305
aF-0.03506444781243165
aF-0.03512243757493857
aF-0.035180148296020196
aF-0.03523648078790591
aF-0.0352904030800147
aF-0.035340944388548554
aF-0.03538718810893617
aF-0.03542826592702756
aF-0.0354633547457494
aF-0.035491676569625784
aF-0.03551249978866131
aF-0.035525139725682366
aF-0.03552895710880732
aF-0.03552335447384276
aF-0.035507771546892095
aF-0.035481681082102895
aF-0.03544458643546507
aF-0.035396021655496275
aF-0.03533555459915615
aF-0.03526279370433036
aF-0.035177399086046106
aF-0.03507909806602215
aF-0.03496770426428736
aF-0.03484313858070268
aF-0.034705450037562306
aF-0.03455483433426497
aF-0.03439164802028214
aF-0.03421641680701823
aF-0.03402983791669356
aF-0.03383277780960827
aF-0.03362626692632387
aF-0.03341149188077868
aF-0.03318978404146402
aF-0.03296260314885612
aF-0.0327315156515946
aF-0.03249816865482524
aF-0.032264260902159336
aF-0.03203151220666371
aF-0.031801632808966654
aF-0.031576294560978276
aF-0.0313571061927914
aF-0.03114559443073562
aF-0.030943191199290485
aF-0.030751225342130303
aF-0.030570916293878786
aF-0.030403367373956203
aF-0.03024955746057014
aF-0.03011033094678806
aF-0.029986386548501887
aF-0.029878265614539216
aF-0.02978634027782178
aF-0.02971080161692315
aF-0.029651648438402452
aF-0.029608678065312165
aF-0.02958148095227745
aF-0.029569440884720563
aF-0.029571742133633977
aF-0.029587384029362226
aF-0.029615201837947223
aF-0.02965389129451343
aF-0.029702033731586766
aF-0.029758119578439803
aF-0.029820569308421415
aF-0.029887752029682697
aF-0.029958002706311014
aF-0.03002963926680319
aF-0.0301009804373337
aF-0.03017036449451761
aF-0.030236168892863402
aF-0.03029683073193865
aF-0.03035086779913508
aF-0.030396899547024216
aF-0.030433667191827853
aF-0.030460052127365335
aF-0.03047509175667065
aF-0.03047799152824076
aF-0.030468131847473805
aF-0.030445069357770176
aF-0.030408533690932195
aF-0.030358421836292972
aF-0.03029479197050565
aF-0.03021785762513578
aF-0.030127982361777005
aF-0.030025674654619743
aF-0.029911582002134608
aF-0.029786482477336357
aF-0.029651271768958497
aF-0.029506945049556782
aF-0.0293545755100718
aF-0.029195293694319356
aF-0.02903027213435456
aF-0.02886071748314448
aF-0.028687868290534768
aF-0.028512993074935423
aF-0.02833738268460311
aF-0.02816233354145288
aF-0.02798912237615095
aF-0.027818976126575426
aF-0.027653041668388313
aF-0.027492359188101074
aF-0.027337841128627267
aF-0.027190256852701426
aF-0.027050222456897408
aF-0.026918195536366776
aF-0.026794475038556247
aF-0.026679205730887317
aF-0.02657238578616942
aF-0.026473875775707582
aF-0.02638340804422039
aF-0.026300596075770014
aF-0.026224943729679907
aF-0.02615585474709147
aF-0.02609264381493449
aF-0.026034550870222363
aF-0.025980759791842955
aF-0.025930421856247454
aF-0.025882683999789307
aF-0.02583672162869309
aF-0.025791774547265386
aF-0.02574718247394732
aF-0.025702414965678266
aF-0.025657091178864253
aF-0.025610987864905104
aF-0.02556403723335591
aF-0.025516317856643857
aF-0.025468041602311746
aF-0.025419538541045204
aF-0.025371240535241632
aF-0.025323663405637197
aF-0.025277387719644183
aF-0.025233039102291126
aF-0.025191269718081135
aF-0.025152742539851572
aF-0.025118119126508475
aF-0.025088050448614105
aF-0.025063169600484034
aF-0.02504408514279625
aF-0.025031373746841366
aF-0.02502557048144731
aF-0.025027155030153812
aF-0.0250365329428774
aF-0.025054012519508558
aF-0.025079779228757235
aF-0.02511387006649633
aF-0.025156150161030292
aF-0.025206293707817785
aF-0.025263771033520985
aF-0.025327843200637485
aF-0.025397565196292483
aF-0.025471798387861896
aF-0.025549232327415225
aF-0.025628415083533286
aF-0.02570779042108812
aF-0.0257857396505383
aF-0.025860625616569474
aF-0.02593083586565476
aF-0.025994822036223737
aF-0.026051133525497934
aF-0.026098444913142154
aF-0.026135577291976842
aF-0.02616151356340219
aF-0.026175408038443378
aF-0.0261765917271856
aF-0.026164575421291556
aF-0.026139052125675633
aF-0.026099899099462986
aF-0.026047178922668005
aF-0.02598113899206276
aF-0.025902209158028038
aF-0.025810997433293768
aF-0.0257082837962191
aF-0.025595011976427356
aF-0.025472278700527935
aF-0.025341319471144236
aF-0.025203489755606698
aF-0.025060240454642554
aF-0.02491308696074329
aF-0.024763572281968634
aF-0.024613226176341017
aF-0.024463523195326985
aF-0.024315842584148633
aF-0.024171432284297363
aF-0.024031378269212263
aF-0.023896579678939232
aF-0.02376773002470192
aF-0.023645304808616447
aF-0.023529555504050975
aF-0.023420508717857395
aF-0.023317968639809953
aF-0.02322152225460483
aF-0.023130550059446562
aF-0.023044247439987075
aF-0.022961660802237646
aF-0.02288173846503924
aF-0.022803392014514038
aF-0.022725561508953347
aF-0.022647277628622616
aF-0.022567714605370284
aF-0.022486229193362052
aF-0.022402383403935862
aF-0.02231595203718027
aF-0.022226918774928675
aF-0.02213546516351354
aF-0.022041955331890104
aF-0.021946917710589296
aF-0.0218510247705667
aF-0.02175507215889698
aF-0.021659958196355758
aF-0.021566663543279543
aF-0.02147622988334414
aF-0.021389736195112346
aF-0.021308271500463976
aF-0.021232903736115007
aF-0.02116464539765697
aF-0.021104417658249806
aF-0.021053015598035924
aF-0.021011077741134147
aF-0.020979063027467826
aF-0.020957237511065586
aF-0.020945671424848697
aF-0.020944245138498754
aF-0.020952660908330326
aF-0.020970456869942106
aF-0.02099702022182356
aF-0.021031597482675288
aF-0.02107330101339083
aF-0.021121112804657352
aF-0.021173888532723038
aF-0.0212303661368144
aF-0.021289182772474262
aF-0.021348902018102217
aF-0.021408050636634254
aF-0.021465162041526646
aF-0.021518822404668254
aF-0.021567715075295923
aF-0.021610659451110723
aF-0.021646641556141294
aF-0.021674835062821064
aF-0.021694612735196895
aF-0.021705549091041675
aF-0.021707415895847838
aF-0.021700172661728818
aF-0.021683953718132244
aF-0.021659051946538683
aF-0.02162589859872669
aF-0.021585039382966506
aF-0.021537107879701256
aF-0.02148279726501116
aF-0.021422830997644596
aF-0.021357933580799876
aF-0.021288803396281728
aF-0.02121608989453587
aF-0.021140376749532487
aF-0.02106217130464167
aF-0.0209818992806755
aF-0.02089990289923501
aF-0.02081644071139632
aF-0.020731688401407055
aF-0.020645741242956827
aF-0.020558620152130225
aF-0.02047028372967177
aF-0.020380648158554875
aF-0.02028961573506648
aF-0.020197111234344346
aF-0.020103123084817796
aF-0.020007744202531215
aF-0.01991120674226842
aF-0.01981390641734966
aF-0.019716414459408943
aF-0.01961947756815254
aF-0.01952400776963628
aF-0.019431064734082952
aF-0.019341832770958977
aF-0.019257593752541054
aF-0.01917969621697445
aF-0.01910952031625356
aF-0.01904843821625731
aF-0.018997770107192294
aF-0.018958737202653318
aF-0.018932414569497694
aF-0.018919687611675413
aF-0.018921216129401137
aF-0.018937408963697
aF-0.018968410324992354
aF-0.01901409663638012
aF-0.01907408133744283
aF-0.019147725211390104
aF-0.019234150558061273
aF-0.019332257663039365
aF-0.01944074161731171
aF-0.019558107882898277
aF-0.01968268642898783
aF-0.019812645623884868
aF-0.019946007360959077
aF-0.020080664438781173
aF-0.02021440090891191
aF-0.020344916305018185
aF-0.020469854843401407
aF-0.020586840001467894
aF-0.02069351345288051
aF-0.02078757648753906
aF-0.02086683253430406
aF-0.02092923021018958
aF-0.02097290607161852
aF-0.020996225134639505
aF-0.020997816584650233
aF-0.02097660250068503
aF-0.02093181826386971
aF-0.020863024047735403
aF-0.02077010755643808
aF-0.020653279073286342
aF-0.02051306042462611
aF-0.020350269304817505
aF-0.020165999970281984
aF-0.019961601328040684
aF-0.019738654056659817
aF-0.019498948955511526
aF-0.019244468517804838
aF-0.018977372737728804
aF-0.01869998886369852
aF-0.018414803513236072
aF-0.018124454377235366
aF-0.017831717997439846
aF-0.017539490229490765
aF-0.017250756954332182
aF-0.01696855396834463
aF-0.016695916525700245
aF-0.01643582055564805
aF-0.016191118874027754
aF-0.01596447668491198
aF-0.015758311339937867
aF-0.015574741304853767
aF-0.015415548078085203
aF-0.015282152607213675
aF-0.015175605422307784
aF-0.015096588101430889
aF-0.015045423268201987
aF-0.01502209100048879
aF-0.01502625055654014
aF-0.015057266823681918
aF-0.015114240572035009
aF-0.015196040766461898
aF-0.015301336413862436
aF-0.015428625242662449
aF-0.015576257064136205
aF-0.0157424504243419
aF-0.015925301600611366
aF-0.016122785604536293
aF-0.016332750591769984
aF-0.0165529096647068
aF-0.016780835679828857
aF-0.017013963949080224
aF-0.017249605215132375
aF-0.017484968772988302
aF-0.017717194319058573
aF-0.017943390797843697
aF-0.018160680313934984
aF-0.018366244844374498
aF-0.018557373349754668
aF-0.018731506958658294
aF-0.018886280011054142
aF-0.019019555223646404
aF-0.0191294525813841
aF-0.01921437337101537
aF-0.019273021835723065
aF-0.019304426570206767
aF-0.019307962562593393
aF-0.01928337364772417
aF-0.019230794332667986
aF-0.019150769135347193
aF-0.019044266438237242
aF-0.018912682762736367
aF-0.018757833258905975
aF-0.018581925626841578
aF-0.01838751709792327
aF-0.018177456444055738
aF-0.017954814591151277
aF-0.01772280821589736
aF-0.0174847208390859
aF-0.017243825510897672
aF-0.017003312477187633
aF-0.016766224647775618
aF-0.016535403341570342
aF-0.016313446183589365
aF-0.016102677855518163
aF-0.015905133080584173
aF-0.01572255031347252
aF-0.015556374014285617
aF-0.015407762737150103
aF-0.015277599712030958
aF-0.015166502849579445
aF-0.015074832546938562
aF-0.015002697592108443
aF-0.01494996061047827
aF-0.014916244534898588
aF-0.014900941127168964
aF-0.014903222094961144
aF-0.0149220529201815
aF-0.01495620926625559
aF-0.01500429583324431
aF-0.015064767644209153
aF-0.01513595372896523
aF-0.015216082790880898
aF-0.015303309811352965
aF-0.015395742234256835
aF-0.015491464750335535
aF-0.01558856249231315
aF-0.01568514324980129
aF-0.01577936003739802
aF-0.015869435831447214
aF-0.01595369196497041
aF-0.01603058031575384
aF-0.016098717852768833
aF-0.016156921298447757
aF-0.016204239515591305
aF-0.01623998105266466
aF-0.016263734079987695
aF-0.016275376214382988
aF-0.01627507257743267
aF-0.01626326172549135
aF-0.016240630717930384
aF-0.0162080821605348
aF-0.016166696921051174
aF-0.016117695935508117
aF-0.016062403241157302
aF-0.01600221084642003
aF-0.01593854520522328
aF-0.01587283520212974
aF-0.015806482195139478
aF-0.015740833060730514
aF-0.01567715680142422
aF-0.015616624164470003
aF-0.01556028872371909
aF-0.015509067996861485
aF-0.01546372457313764
aF-0.015424849042792212
aF-0.015392847446847205
aF-0.015367935133208829
aF-0.015350136682064041
aF-0.015339289569352252
aF-0.015335049065380881
aF-0.015336893555859873
aF-0.01534413140808146
aF-0.01535591096892931
aF-0.015371234031801411
aF-0.015388971505083842
aF-0.015407879785757363
aF-0.015426617923094712
aF-0.01544376752132623
aF-0.015457857486974043
aF-0.015467393972084992
aF-0.01547089397100574
aF-0.015466920781124173
aF-0.015454120952462397
aF-0.015431263740268847
aF-0.015397283842324468
aF-0.015351326475161863
aF-0.015292792044343254
aF-0.015221376811452155
aF-0.015137106044510004
aF-0.015040356875159595
aF-0.014931869360786408
aF-0.01481274568085882
aF-0.014684438130146733
aF-0.01454872606558108
aF-0.014407680901097055
aF-0.014263618065123627
aF-0.014119036190807904
aF-0.013976545925623031
aF-0.013838792323525499
aF-0.01370837527097946
aF-0.013587772318222543
aF-0.013479268138761063
aF-0.013384894194819101
aF-0.01330638056624461
aF-0.013245119856119663
aF-0.013202141554043473
aF-0.013178094617335084
aF-0.013173236470702683
aF-0.013187428093378428
aF-0.013220136458180787
aF-0.01327044602123386
aF-0.013337080040235899
aF-0.013418431141790489
aF-0.013512599548998696
aF-0.013617437032405089
aF-0.013730595085176982
aF-0.013849576632878002
aF-0.013971790856956275
aF-0.0140946100908976
aF-0.014215426822687578
aF-0.014331708304107033
aF-0.014441046400577105
aF-0.01454120099491243
aF-0.014630136101056367
aF-0.014706048659148855
aF-0.014767391019549193
aF-0.01481288932213185
aF-0.014841560410056812
aF-0.014852728737972325
aF-0.014846042442474375
aF-0.014821485884514322
aF-0.014779385593306412
aF-0.014720407330883041
aF-0.014645543086169771
aF-0.014556087797192275
aF-0.014453606465332315
aF-0.01433989303228594
aF-0.014216922996509868
aF-0.01408680234728275
aF-0.013951715852319158
aF-0.013813877707641713
aF-0.013675486776120576
aF-0.013538687317028382
aF-0.013405535075815793
aF-0.013277968474187664
aF-0.013157784921923854
aF-0.01304662202329231
aF-0.012945942584580298
aF-0.012857021574360167
aF-0.012780933070253618
aF-0.012718535643316245
aF-0.012670455334011257
aF-0.012637066438731706
aF-0.012618471755840379
aF-0.012614484974857574
aF-0.012624617626233825
aF-0.012648071803663305
aF-0.012683739056152476
aF-0.012730205968590754
aF-0.012785767461859198
aF-0.012848449175852697
aF-0.012916040049397228
aF-0.012986135130432098
aF-0.013056187403280736
aF-0.013123567130735564
aF-0.013185627610419732
aF-0.013239775682742004
aF-0.013283543171112258
aF-0.013314653406675678
aF-0.013331077368127258
aF-0.013331076962733763
aF-0.013313236579088054
aF-0.01327648617633502
aF-0.013220119257473819
aF-0.013143807691722811
aF-0.013047613321564639
aF-0.012931994417055365
aF-0.012797804177574148
aF-0.01264627915905136
aF-0.012479017423600178
aF-0.012297948290042063
aF-0.012105296628127293
aF-0.011903544238802485
aF-0.011695389517837817
aF-0.01148370517935931
aF-0.011271492857143914
aF-0.011061833161832742
aF-0.010857830553750714
aF-0.010662554127393475
aF-0.010478977022298247
aF-0.010309917364031284
aF-0.010157982450635795
aF-0.01002551678099826
aF-0.009914554640861353
aF-0.009826779081274491
aF-0.00976349004451233
aF-0.009725584084845052
aF-0.009713546631533529
aF-0.009727456223095116
aF-0.009766999721004027
aF-0.009831497875247898
aF-0.009919940518766712
aF-0.010031029686510146
aF-0.010163227817687234
aF-0.010314807633633941
aF-0.010483900443519161
aF-0.010668540387468992
aF-0.010866703177491674
aF-0.011076338800825047
aF-0.011295398216245745
aF-0.011521854529813923
aF-0.011753719658690681
aF-0.011989057711407534
aF-0.01222599567072689
aF-0.012462730702116915
aF-0.0126975327231839
aF-0.012928741613178014
aF-0.013154760123118121
aF-0.013374044930969298
aF-0.01358509848200572
aF-0.013786463199380412
aF-0.013976718169396938
aF-0.014154477693120972
aF-0.014318391639047504
aF-0.014467148608596473
aF-0.014599483390202396
aF-0.014714189732463788
aF-0.014810138885628134
aF-0.014886304204545345
aF-0.014941791694404162
aF-0.014975874820500558
aF-0.014988029865757056
aF-0.014977967376122116
aF-0.014945656293498926
aF-0.01489133890067964
aF-0.014815535512718287
aF-0.014719038171410306
aF-0.014602893270654818
aF-0.01446837455002295
aF-0.014316949836919153
aF-0.014150245932438096
aF-0.013970015238623002
aF-0.013778106076630632
aF-0.013576437687510785
aF-0.013366980666088967
aF-0.013151742953420111
aF-0.012932760202675836
aF-0.012712088244922013
aF-0.012491795385600447
aF-0.012273953240066793
aF-0.01206062579011759
aF-0.011853856356607849
aF-0.011655651248250734
aF-0.011467957973434431
aF-0.011292636084153242
aF-0.011131420038911584
aF-0.010985875199581534
aF-0.0108573494588697
aF-0.010746923751219196
aF-0.010655364856786325
aF-0.010583083553396669
aF-0.010530100707663503
aF-0.010496023894004473
aF-0.010480037365811155
aF-0.010480907749118673
aF-0.010497006494817402
aF-0.01052634870602543
aF-0.010566647083709153
aF-0.010615379448473801
aF-0.010669868329616286
aF-0.01072737094034555
aF-0.010785176971598039
aF-0.010840709992741364
aF-0.01089162637226516
aF-0.010935904515380557
aF-0.010971917743723794
aF-0.010998486147088697
aF-0.01101490519008454
aF-0.011020951128558809
aF-0.011016865317505646
aF-0.01100332096608839
aF-0.010981376386232797
aF-0.010952418423106831
aF-0.010918099101494893
aF-0.010880267957587822
aF-0.01084090209347099
aF-0.010802035574671107
aF-0.010765689495566163
aF-0.01073380425336706
aF-0.010708176215684656
aF-0.010690401193331513
aF-0.010681826396223061
aF-0.010683511168744712
aF-0.010696195352285843
aF-0.010720273451835951
aF-0.01075577384385565
aF-0.01080234461678903
aF-0.010859249289540034
aF-0.010925375365333962
aF-0.010999257150464464
aF-0.011079112722886895
aF-0.011162893809497374
aF-0.011248346495558332
aF-0.011333080030752977
aF-0.011414640415734163
aF-0.01149058472318697
aF-0.011558551304684632
aF-0.011616320941618356
aF-0.01166186548679727
aF-0.0116933836476449
aF-0.011709327099802906
aF-0.011708422006359201
aF-0.011689689862540478
aF-0.011652468375361763
aF-0.011596430317672183
aF-0.011521597523340683
aF-0.011428348162657608
aF-0.011317416875709078
aF-0.011189887955800983
aF-0.011047181329247749
aF-0.010891030684866307
aF-0.0107234537913797
aF-0.01054671641085412
aF-0.010363292160807929
aF-0.010175820635233057
aF-0.009987065263490946
aF-0.009799871423800902
aF-0.009617124838167653
aF-0.009441710201444561
aF-0.00927646997391201
aF-0.009124163493738534
aF-0.008987427281579993
aF-0.008868737805208818
aF-0.00877037723344528
aF-0.008694401671429337
aF-0.008642611221915246
aF-0.008616521438496765
aF-0.00861733532454078
aF-0.008645914553029979
aF-0.008702749220392207
aF-0.008787927158770454
aF-0.008901105589936023
aF-0.00904148884551714
aF-0.009207815639618522
aF-0.009398358083512812
aF-0.009610932986719768
aF-0.009842924904359457
aF-0.010091320170626531
aF-0.01035275145259289
aF-0.01062355277750835
aF-0.010899825053661499
aF-0.011177511125009426
aF-0.011452477472041688
aF-0.01172059824167996
aF-0.011977837638525174
aF-0.012220328459766977
aF-0.012444446324185243
aF-0.01264687995179807
aF-0.012824697497312307
aF-0.012975407746829303
aF-0.013097013522032044
aF-0.01318805352575762
aF-0.013247628715065744
aF-0.013275410458466367
aF-0.013271629922546248
aF-0.013237050437390785
aF-0.013172926146545971
aF-0.013080950766787154
aF-0.012963199981385365
aF-0.012822070264974965
aF-0.012660216263550714
aF-0.01248048849073017
aF-0.012285872696011182
aF-0.012079431513685356
aF-0.011864248552747855
aF-0.011643375534345234
aF-0.011419783727232295
aF-0.011196320781024149
aF-0.010975673261627827
aF-0.010760334587844408
aF-0.01055257798867819
aF-0.010354434118432993
aF-0.01016767257562039
aF-0.009993786100481074
aF-0.009833976527307116
aF-0.00968914246770229
aF-0.009559869048635684
aF-0.009446419728576148
aF-0.009348730382535085
aF-0.009266406761718374
aF-0.009198727279710127
aF-0.009144653467029694
aF-0.009102850404371768
aF-0.009071718534138969
aF-0.009049436272347238
aF-0.009034011039557463
aF-0.009023336290535857
aF-0.009015253700455831
aF-0.009007620994272375
aF-0.008998385433867677
aF-0.008985660779716987
aF-0.008967802935242063
aF-0.008943478062320924
aF-0.008911717603364637
aF-0.008871956745444672
aF-0.008824054818339306
aF-0.008768296948544302
aF-0.008705376452391736
aF-0.008636358108434867
aF-0.008562624267000909
aF-0.008485808201827608
aF-0.008407720715730035
aF-0.0083302757405988
aF-0.008255419058308936
aF-0.008185062642082342
aF-0.008121025950946936
aF-0.008064984365195333
aF-0.00801842372239697
aF-0.007982599139352833
aF-0.007958496415524464
aF-0.007946795387057068
aF-0.007947836533350764
aF-0.007961594245356073
aF-0.007987661096781052
aF-0.00802524645496082
aF-0.008073190710047634
aF-0.008129994817653677
aF-0.008193864099041206
aF-0.008262764585597151
aF-0.008334489487853166
aF-0.0084067333218771
aF-0.00847717178869536
aF-0.00854354561229228
aF-0.008603745839899302
aF-0.008655897345144601
aF-0.008698436809718978
aF-0.00873018092967591
aF-0.00875038016681727
aF-0.008758753891669779
aF-0.0087555045076955
aF-0.00874131037781569
aF-0.008717299222505167
aF-0.008685004726060645
aF-0.00864630943287986
aF-0.008603377012082808
aF-0.008558577050684801
aF-0.008514405814327537
aF-0.008473406486511887
aF-0.008438091683826138
aF-0.008410869595884945
aF-0.008393973873516392
aF-0.008389397329377695
aF-0.008398830593078789
aF-0.008423608243049123
aF-0.008464665592048937
aF-0.00852250856686448
aF-0.008597197287046922
aF-0.008688342170430813
aF-0.008795110791959073
aF-0.008916244588496491
aF-0.009050086006621242
aF-0.009194617409556906
aF-0.009347512288200705
aF-0.00950619763266904
aF-0.009667924744336568
aF-0.009829844932975541
aF-0.009989086518831118
aF-0.010142830017491757
aF-0.010288378857895396
aF-0.010423223197554956
aF-0.010545094632912812
aF-0.01065201054021974
aF-0.010742308475757282
aF-0.010814672397144075
aF-0.010868152368461713
aF-0.010902178037419915
aF-0.010916564394412295
aF-0.010911507024735435
aF-0.01088756415606889
aF-0.010845624641721775
aF-0.010786863638544305
aF-0.010712689620709545
aF-0.010624686958622336
aF-0.01052455811049855
aF-0.010414069092326703
aF-0.010295001365871673
aF-0.010169112397547262
aF-0.010038105798403009
aF-0.009903610495203437
aF-0.009767167453216225
aF-0.009630222262056202
aF-0.009494121868824338
aF-0.009360113549719327
aF-0.0092293442380198
aF-0.009102858907446724
aF-0.008981597589576625
aF-0.008866391534462113
aF-0.008757959948550578
aF-0.008656909123242908
aF-0.00856373495320584
aF-0.00847882835324402
aF-0.008402482176602947
aF-0.00833489828830047
aF-0.008276193931731072
aF-0.008226407020181148
aF-0.008185500132616921
aF-0.008153362546698895
aF-0.008129809242349026
aF-0.008114576588281519
aF-0.008107316374128043
aF-0.008107591531206083
aF-0.008114877065342224
aF-0.008128568625459558
aF-0.008147999720831233
aF-0.008172467254222267
aF-0.008201263414959333
aF-0.008233710017878239
aF-0.008269189997561861
aF-0.008307171259665739
aF-0.008347220625696868
aF-0.008389008553614375
aF-0.008432306605582512
aF-0.00847697888641328
aF-0.0085229674893133
aF-0.008570272101613189
aF-0.008618925449697081
aF-0.008668967667169432
aF-0.008720422439596717
aF-0.008773276049320277
aF-0.008827458745297966
aF-0.00888282744748492
aF-0.00893914978585144
aF-0.008996091186606124
aF-0.009053207953268869
aF-0.009109948919404537
aF-0.009165666395199116
aF-0.009219635217072173
aF-0.009271077800055547
aF-0.009319192756506655
aF-0.009363184051284291
aF-0.009402287301603756
aF-0.009435790966744826
aF-0.009463052488822224
aF-0.009483510801048752
aF-0.009496695837541794
aF-0.009502234061759427
aF-0.009499848491973457
aF-0.009489352714910068
aF-0.009470640136993919
aF-0.009443671176493239
aF-0.009408461550477204
aF-0.009365074129041013
aF-0.009313615394647354
aF-0.009254236173907955
aF-0.009187135973680177
aF-0.009112570990384282
aF-0.009030866345823372
aF-0.00894243230395726
aF-0.008847782765101751
aF-0.008747553370914665
aF-0.0086425163851231
aF-0.008533590060931136
aF-0.008421841537171062
aF-0.008308483814589483
aF-0.008194867722513585
aF-0.008082468656252412
aF-0.007972866579684127
aF-0.00786771783606635
aF-0.0077687189111170975
aF-0.007677564407300852
aF-0.0075959028149419835
aF-0.007525293651754897
aF-0.0074671683687911865
aF-0.00742279545051504
aF-0.0073932482295215535
aF-0.007379373619343042
aF-0.007381761778785352
aF-0.007400718965970651
aF-0.007436246510536055
aF-0.007488027865302618
aF-0.007555424137414618
aF-0.007637476884552281
aF-0.0077329157164187
aF-0.007840168178099767
aF-0.007957370845509338
aF-0.00808238283506106
aF-0.008212804826712265
aF-0.008346007147985345
aF-0.008479169150063855
aF-0.008609330042334306
aF-0.0087334500157204
aF-0.008848480107491985
aF-0.00895143894420923
aF-0.009039493799686745
aF-0.009110042663495512
aF-0.009160793554402764
aF-0.009189837237549318
aF-0.009195709996071375
aF-0.009177444342604651
aF-0.009134607258688945
aF-0.00906732680137138
aF-0.00897630788682208
aF-0.008862836988388138
aF-0.008728774310661162
aF-0.008576531291996044
aF-0.008409031244290315
aF-0.008229651784491754
aF-0.008042149326063421
aF-0.007850567624364107
aF-0.0076591336659679495
aF-0.007472145140783276
aF-0.0072938546895981345
aF-0.0071283569664122816
aF-0.0069794846015345515
aF-0.00685071783797799
aF-0.006745110177909083
aF-0.006665229814763526
aF-0.0066131151218519835
aF-0.0065902426579270285
aF-0.006597507557495108
aF-0.006635217257130555
aF-0.0067030989003565205
aF-0.0068003188558859885
aF-0.006925511313291759
aF-0.007076812779227863
aF-0.007251900009200672
aF-0.007448030103089174
aF-0.007662083141542172
aF-0.007890609142176663
aF-0.008129881243499504
aF-0.008375955735105148
aF-0.008624737617102082
aF-0.008872048874643533
aF-0.009113696571398633
aF-0.009345539297184353
aF-0.009563552204343037
aF-0.0097638913639495
aF-0.009942957271206544
aF-0.01009745603454691
aF-0.010224456134108334
aF-0.010321438819596053
aF-0.010386340532998101
aF-0.010417585668938509
aF-0.010414108172177281
aF-0.010375361810222576
aF-0.010301320990923362
aF-0.010192475236869645
aF-0.010049820062395149
aF-0.009874845539820593
aF-0.009669522282136751
aF-0.009436283457798499
aF-0.009178000965504717
aF-0.00889795424022492
aF-0.00859979131864124
aF-0.008287483056649218
aF-0.00796527174824123
aF-0.007637614630754904
aF-0.007309121901645392
aF-0.006984489049991612
aF-0.006668424439412603
aF-0.00636557409967899
aF-0.0060804457161951105
aF-0.005817332908649075
aF-0.005580239999484088
aF-0.005372807478057189
aF-0.005198239092389525
aF-0.005059232036180458
aF-0.004957911621776494
aF-0.004895771611435762
aF-0.004873621731099683
aF-0.004891545012447606
aF-0.004948869000212558
aF-0.005044155646420192
aF-0.005175214016836729
aF-0.00533913738797349
aF-0.005532362757380151
aF-0.005750748093760934
aF-0.005989662175122713
aF-0.006244083292988017
aF-0.006508704963551573
aF-0.0067780475918934385
aF-0.007046574118770884
aF-0.0073088058924472895
aF-0.00755943437996079
aF-0.007793425900995686
aF-0.008006118871399999
aF-0.008193313881574476
aF-0.008351355953240948
aF-0.008477206823785255
aF-0.008568504343478731
aF-0.008623606555550998
aF-0.008641619524263636
aF-0.008622409421992867
aF-0.008566599603841632
aF-0.00847555235953354
aF-0.008351334127949656
aF-0.008196663597464732
aF-0.008014844176799206
aF-0.007809684418631424
aF-0.007585410975297344
aF-0.007346578322092478
aF-0.00709797805423362
aF-0.006844548758329417
aF-0.006591286354736038
aF-0.0063431547457298496
aF-0.006104996705533398
aF-0.005881444529551984
aF-0.0056768297338121165
aF-0.005495092266535083
aF-0.005339692214295223
aF-0.00521352915133608
aF-0.005118874445468489
aF-0.005057320245939664
aF-0.005029746983887268
aF-0.005036309860250013
aF-0.005076444199982209
aF-0.005148889775035752
aF-0.005251734486173334
aF-0.005382476833348833
aF-0.0055381043063346385
aF-0.0057151826334112445
aF-0.005909949906173947
aF-0.006118410013895632
aF-0.006336421337007397
aF-0.00655977882199263
aF-0.00678428924815859
aF-0.007005839742205181
aF-0.00722045882806751
aF-0.007424368771051263
aF-0.007614028314683178
aF-0.007786165853400322
aF-0.007937804314209896
aF-0.008066280399507799
aF-0.008169261819126326
aF-0.008244765937176147
aF-0.00829118193963591
aF-0.008307296964743966
aF-0.008292324974648074
aF-0.008245935502790184
aF-0.008168278366856935
aF-0.008060000729352293
aF-0.00792225430324572
aF-0.00775669192256148
aF-0.007565453345907791
aF-0.007351140411342158
aF-0.007116782236128455
aF-0.00686579183383991
aF-0.006601915598563863
aF-0.00632917679375932
aF-0.006051814253460876
aF-0.00577421787804537
aF-0.005500862509275
aF-0.005236241344790086
aF-0.004984799631221483
aF-0.004750869076772384
aF-0.0045386032428371805
aF-0.004351914302362569
aF-0.004194411855618518
aF-0.00406934434950265
aF-0.0039795429662070276
aF-0.003927367639582775
aF-0.003914655930959927
aF-0.003942677168711072
aF-0.0040120952849658715
aF-0.0041229437735827885
aF-0.004274615241595865
aF-0.004465866156522225
aF-0.004694835169115953
aF-0.004959071993145554
aF-0.005255573898764728
aF-0.005580828015703609
aF-0.005930859051125634
aF-0.0063012830137410695
aF-0.006687367581266512
aF-0.0070840989537163885
aF-0.007486254267520045
aF-0.007888478497787366
aF-0.008285364773013833
aF-0.008671536515780847
aF-0.009041729136954259
aF-0.00939086899306516
aF-0.009714148024048628
aF-0.010007093118748204
aF-0.010265629297227881
aF-0.01048613561729822
aF-0.01066549289620185
aF-0.010801122980344925
aF-0.010891020065926902
aF-0.010933775072981539
aF-0.010928594054820159
aF-0.010875311152109058
aF-0.010774395923311
aF-0.010626954153486462
aF-0.010434720768127726
aF-0.010200043799280762
aF-0.00992585942629911
aF-0.009615659045512877
aF-0.00927344942007916
aF-0.008903706330013486
aF-0.008511321116022272
aF-0.008101538502657055
aF-0.007679883890241925
aF-0.007252079409668848
aF-0.006823949888920543
aF-0.006401321659940903
aF-0.0059899184780507105
aF-0.005595259284081531
aF-0.005222561635570489
aF-0.004876652993602341
aF-0.004561891100313351
aF-0.004282094884775583
aF-0.004040487781815551
aF-0.0038396550329509523
aF-0.003681515315536713
aF-0.003567305520897714
aF-0.0034975764553849984
aF-0.0034721971254619674
aF-0.0034903661187993032
aF-0.003550630180806641
aF-0.0036509118556005923
aF-0.003788548997992898
aF-0.003960348234114289
aF-0.004162652326104688
aF-0.004391418992368436
aF-0.004642306976652071
aF-0.004910764497717309
aF-0.005192115775131333
aF-0.005481642769480446
aF-0.005774660710120965
aF-0.006066586595991267
aF-0.006352999793006151
aF-0.006629694018843962
aF-0.006892720835605314
aF-0.007138425846734021
aF-0.00736347945925066
aF-0.007564903957022263
aF-0.007740098130823629
aF-0.007886860701315866
aF-0.008003414191418508
aF-0.008088430505549487
aF-0.00814105763482948
aF-0.00816094483790192
aF-0.00814826312567629
aF-0.008103719113538885
aF-0.008028561617899915
aF-0.007924580184146171
aF-0.007794093340022886
aF-0.00763992345332062
aF-0.007465355872308495
aF-0.007274082237872412
aF-0.007070129982227771
aF-0.0068577807064945815
aF-0.006641479398766291
aF-0.006425735699349991
aF-0.006215018817725282
aF-0.006013649021552009
aF-0.005825689839954815
aF-0.005654845710820177
aF-0.005504369745211619
aF-0.005376985600744032
aF-0.0052748262989951505
aF-0.00519939148580988
aF-0.0051515232425644875
aF-0.005131399338807314
aF-0.005138542261025357
aF-0.005171842440163376
aF-0.005229594244919813
aF-0.0053095434034193725
aF-0.005408944947507353
aF-0.005524631367811854
aF-0.005653090700976401
aF-0.0057905534939015025
aF-0.005933086572758327
aF-0.00607669102623385
aF-0.00621740201806601
aF-0.006351388606646753
aF-0.0064750520807993475
aF-0.006585121011753621
aF-0.0066787403462414165
aF-0.006753551025263394
aF-0.006807756361502243
aF-0.006840171577478649
aF-0.006850253061149635
aF-0.006838104434676293
aF-0.006804458373856462
aF-0.006750636153518642
aF-0.006678489710153339
aF-0.006590332267315523
aF-0.006488863061868375
aF-0.006377090157980386
aF-0.006258253591520537
aF-0.0061357496093294595
aF-0.006013055643078812
aF-0.005893654905816271
aF-0.005780959254805123
aF-0.005678229437120862
aF-0.005588493105133918
aF-0.005514462739271629
aF-0.005458457157895119
aF-0.005422331060679677
aF-0.005407417002592132
aF-0.005414483605661963
aF-0.005443712728076024
aF-0.005494696503616109
aF-0.005566452879569439
aF-0.005657456560270379
aF-0.005765682064757832
aF-0.005888656826727552
aF-0.006023523821710786
aF-0.006167113837361435
aF-0.006316026680204815
aF-0.006466718980210348
aF-0.006615594980443521
aF-0.0067590964630769934
aF-0.006893788760760762
aF-0.007016441182819113
aF-0.007124101286351211
aF-0.007214162401571806
aF-0.007284422719880141
aF-0.007333133095144035
aF-0.007359030579161808
aF-0.00736135588781998
aF-0.00733985486822763
aF-0.007294765663029092
aF-0.007226793974779608
aF-0.007137078568033504
aF-0.007027148403099005
aF-0.006898872156987691
aF-0.006754400701565603
aF-0.006596103563283928
aF-0.006426501471538939
aF-0.006248198397998393
aF-0.006063817351982443
aF-0.005875944091350678
aF-0.0056870815738313185
aF-0.005499615780201652
aF-0.005315791629824117
aF-0.005137697041918297
aF-0.0049672534837372564
aF-0.0048062115728095866
aF-0.00465615011521697
aF-0.004518476834950307
aF-0.004394429294865063
aF-0.004285074990230458
aF-0.004191310085412255
aF-0.00411385643430413
aF-0.004053256207867055
aF-0.00400986335312275
aF-0.003983832187079859
aF-0.003975105289117371
aF-0.003983403962980755
aF-0.0040082241289597295
aF-0.004048839232427685
aF-0.00410431063694717
aF-0.004173505413986764
aF-0.004255121129695352
aF-0.004347716736776183
aF-0.004449748155015012
aF-0.004559607028121317
aF-0.004675661312075435
aF-0.004796295996690799
aF-0.004919951281883205
aF-0.005045155147390342
aF-0.005170548573556106
aF-0.005294903891109614
aF-0.0054171378989362196
aF-0.005536320842513479
aF-0.005651681320904864
aF-0.005762606864539391
aF-0.0058686400967306925
aF-0.0059694703347454746
aF-0.006064920274780878
aF-0.00615492778947098
aF-0.006239524143849895
aF-0.006318811408429258
aF-0.006392942359661477
aF-0.006462105036327491
aF-0.006526511741342562
aF-0.006586389900644956
aF-0.006641971207423844
aF-0.006693476494938891
aF-0.006741096154893176
aF-0.006784968279997549
aF-0.006825158021367049
aF-0.006861641722816145
aF-0.006894298388140529
aF-0.006922909106069249
aF-0.0069471629299564215
aF-0.0069666666584253835
aF-0.00698095636767935
aF-0.006989509448104392
aF-0.006991756478477375
aF-0.006987092694377267
aF-0.006974889331170187
aF-0.00695450541723771
aF-0.006925300417808683
aF-0.006886647969082804
aF-0.006837951232848779
aF-0.006778660533042481
aF-0.006708293020179456
aF-0.0066264526222408904
aF-0.006532848129543122
aF-0.006427308711931563
aF-0.006309798353689774
aF-0.006180431820381876
aF-0.006039494069821495
aF-0.0058874630598621264
aF-0.005725033856190948
aF-0.0055531407073137725
aF-0.005372973530469639
aF-0.005185985724646251
aF-0.004993891069286105
aF-0.004798648593503117
aF-0.004602435707244365
aF-0.004407611353502239
aF-0.00421667200723385
aF-0.004032203626535595
aF-0.003856832061124858
aF-0.0036931731402040126
aF-0.003543782243084909
aF-0.003411102398316438
aF-0.0032974104060193247
aF-0.003204761958699863
aF-0.003134938444207288
aF-0.0030893991827534192
aF-0.003069242791825802
aF-0.0030751801637021363
aF-0.0031075197368309973
aF-0.0031661644630371364
aF-0.003250619839799685
aF-0.0033600128505949455
aF-0.0034931211330629076
aF-0.003648409792663654
aF-0.003824071330882118
aF-0.004018063858601783
aF-0.004228144462696611
aF-0.0044518969758568635
aF-0.004686755026328223
aF-0.004930022021340916
aF-0.005178890236668305
aF-0.005430461267264618
aF-0.0056817691907759624
aF-0.005929806380853551
aF-0.006171551230085347
aF-0.006403997546012692
aF-0.006624186236106261
aF-0.006829240171944226
aF-0.007016402771866596
aF-0.007183080293199686
aF-0.007326887283853454
aF-0.007445694238633613
aF-0.0075376764940428415
aF-0.007601363574954991
aF-0.007635687761661956
aF-0.007640029364320845
aF-0.007614255182881444
aF-0.0075587469173602345
aF-0.007474417375499737
aF-0.007362712978887074
aF-0.007225600974115578
aF-0.00706553980810967
aF-0.006885432400601689
aF-0.0066885643888877945
aF-0.006478531173575275
aF-0.0062591573759813
aF-0.006034410874731941
aF-0.0058083129380180395
aF-0.005584846834989849
aF-0.005367868493087051
aF-0.0051610230177350416
aF-0.004967670184042457
aF-0.00479082085636816
aF-0.004633085160264605
aF-0.004496632823946675
aF-0.004383166788246
aF-0.0042939119490995655
aF-0.004229620184066135
aF-0.004190590657860914
aF-0.004176702551194626
aF-0.004187456819482814
aF-0.004222023443340342
aF-0.00427929001485915
aF-0.004357907271301125
aF-0.00445632849533941
aF-0.004572841976410979
aF-0.004705597322444582
aF-0.0048526266907759
aF-0.005011861722174423
aF-0.005181146934645299
aF-0.005358250686559303
aF-0.005540875243700638
aF-0.00572666762949252
aF-0.005913232588652592
aF-0.006098148198329077
aF-0.0062789837869618005
aF-0.006453319355596533
aF-0.006618765771416705
aF-0.006772985319007395
aF-0.006913712476073297
aF-0.007038774933961694
aF-0.007146114775487439
aF-0.007233809322244633
aF-0.007300090911630948
aF-0.007343365480081264
aF-0.007362231471513926
aF-0.007355502205750504
aF-0.007322234814511115
atp3
a.