(lp0
(cnumpy.core.multiarray
scalar
p1
(cnumpy
dtype
p2
(S'f8'
p3
I0
I1
tp4
Rp5
(I3
S'<'
p6
NNNI-1
I-1
I0
tp7
bS'\x8e\x9e\xf5\x05\x01\xed\xb6?'
p8
tp9
Rp10
g1
(g5
S'\x10o\xb9\xd4*\xfeJ@'
p11
tp12
Rp13
tp14
a(g1
(g5
S'\x10o\xb9\xd4*\xfeJ@'
p15
tp16
Rp17
g1
(g5
S'\xa9\xf1w\x94o\xf8Z@'
p18
tp19
Rp20
tp21
a.